
C:/Users/David/Documents/GitHub/happy-birthday-project/project_main.axf:     file format elf32-littlearm


Disassembly of section .vectors:

00000000 <__cs3_interrupt_vector>:
   0:	18 f0 9f e5 18 f0 9f e5 18 f0 9f e5 18 f0 9f e5     ................
  10:	18 f0 9f e5 18 f0 9f e5 18 f0 9f e5 18 f0 9f e5     ................
  20:	8c 0c 00 00 90 0c 00 00 94 0c 00 00 98 0c 00 00     ................
  30:	9c 0c 00 00 04 76 00 00 2c 0c 00 00 a0 0c 00 00     .....v..,.......

Disassembly of section .text:

00000040 <__cs3_reset_generic>:
      40:	ea000026 	b	e0 <__cs3_start_asm_sim>

00000044 <__cs3_start_c>:
      44:	e59f608c 	ldr	r6, [pc, #140]	; d8 <__cs3_start_c+0x94>
      48:	e3560000 	cmp	r6, #0
      4c:	e92d4080 	push	{r7, lr}
      50:	e2466001 	sub	r6, r6, #1
      54:	0a00001e 	beq	d4 <__cs3_start_c+0x90>
      58:	e59f507c 	ldr	r5, [pc, #124]	; dc <__cs3_start_c+0x98>
      5c:	e3a00000 	mov	r0, #0
      60:	e3a01000 	mov	r1, #0
      64:	e515200c 	ldr	r2, [r5, #-12]
      68:	e515e010 	ldr	lr, [r5, #-16]
      6c:	e5154008 	ldr	r4, [r5, #-8]
      70:	e15e0002 	cmp	lr, r2
      74:	00822004 	addeq	r2, r2, r4
      78:	0a000009 	beq	a4 <__cs3_start_c+0x60>
      7c:	e3540000 	cmp	r4, #0
      80:	0a000007 	beq	a4 <__cs3_start_c+0x60>
      84:	e1a07002 	mov	r7, r2
      88:	e1a0c002 	mov	r12, r2
      8c:	e8be000c 	ldm	lr!, {r2, r3}
      90:	e8ac000c 	stmia	r12!, {r2, r3}
      94:	e067300c 	rsb	r3, r7, r12
      98:	e1540003 	cmp	r4, r3
      9c:	e1a0200c 	mov	r2, r12
      a0:	1afffff9 	bne	8c <__cs3_start_c+0x48>
      a4:	e515e004 	ldr	lr, [r5, #-4]
      a8:	e35e0000 	cmp	lr, #0
      ac:	11a03002 	movne	r3, r2
      b0:	0a000003 	beq	c4 <__cs3_start_c+0x80>
      b4:	e8a30003 	stmia	r3!, {r0, r1}
      b8:	e062c003 	rsb	r12, r2, r3
      bc:	e15e000c 	cmp	lr, r12
      c0:	1afffffb 	bne	b4 <__cs3_start_c+0x70>
      c4:	e2466001 	sub	r6, r6, #1
      c8:	e3760001 	cmn	r6, #1
      cc:	e2855014 	add	r5, r5, #20
      d0:	1affffe3 	bne	64 <__cs3_start_c+0x20>
      d4:	eb001d15 	bl	7530 <__cs3_premain>
      d8:	00000001 	.word	0x00000001
      dc:	000079f4 	.word	0x000079f4

000000e0 <__cs3_start_asm_sim>:
      e0:	e28f103c 	add	r1, pc, #60	; 0x3c
      e4:	e3a00016 	mov	r0, #22
      e8:	ef123456 	svc	0x00123456
      ec:	e3500000 	cmp	r0, #0
      f0:	ba000008 	blt	118 <__cs3_start_asm_sim+0x38>
      f4:	e59f2028 	ldr	r2, [pc, #40]	; 124 <__cs3_heap_start_ptr>
      f8:	e59fd01c 	ldr	sp, [pc, #28]	; 11c <__cs3_start_asm_sim+0x3c>
      fc:	e5920008 	ldr	r0, [r2, #8]
     100:	e3500000 	cmp	r0, #0
     104:	11a0d000 	movne	sp, r0
     108:	e59f1010 	ldr	r1, [pc, #16]	; 120 <__cs3_start_asm_sim+0x40>
     10c:	e5920004 	ldr	r0, [r2, #4]
     110:	e3500000 	cmp	r0, #0
     114:	15810000 	strne	r0, [r1]
     118:	eaffffc9 	b	44 <__cs3_start_c>
     11c:	3ffffff8 	.word	0x3ffffff8
     120:	00125f38 	.word	0x00125f38

00000124 <__cs3_heap_start_ptr>:
     124:	00153d00 	.word	0x00153d00

00000128 <_start>:
     128:	e51fd000 	ldr	sp, [pc, #-0]	; 130 <_start+0x8>
     12c:	eaffffc4 	b	44 <__cs3_start_c>
     130:	3ffffff8 	.word	0x3ffffff8

00000134 <deregister_tm_clones>:
     134:	e92d4008 	push	{r3, lr}
     138:	e59f002c 	ldr	r0, [pc, #44]	; 16c <deregister_tm_clones+0x38>
     13c:	e59f302c 	ldr	r3, [pc, #44]	; 170 <deregister_tm_clones+0x3c>
     140:	e0603003 	rsb	r3, r0, r3
     144:	e3530006 	cmp	r3, #6
     148:	8a000001 	bhi	154 <deregister_tm_clones+0x20>
     14c:	e8bd4008 	pop	{r3, lr}
     150:	e12fff1e 	bx	lr
     154:	e59f3018 	ldr	r3, [pc, #24]	; 174 <deregister_tm_clones+0x40>
     158:	e3530000 	cmp	r3, #0
     15c:	0afffffa 	beq	14c <deregister_tm_clones+0x18>
     160:	e1a0e00f 	mov	lr, pc
     164:	e12fff13 	bx	r3
     168:	eafffff7 	b	14c <deregister_tm_clones+0x18>
     16c:	00125f40 	.word	0x00125f40
     170:	00125f43 	.word	0x00125f43
     174:	00000000 	.word	0x00000000

00000178 <register_tm_clones>:
     178:	e92d4008 	push	{r3, lr}
     17c:	e59f0034 	ldr	r0, [pc, #52]	; 1b8 <register_tm_clones+0x40>
     180:	e59f3034 	ldr	r3, [pc, #52]	; 1bc <register_tm_clones+0x44>
     184:	e0603003 	rsb	r3, r0, r3
     188:	e1a03143 	asr	r3, r3, #2
     18c:	e0833fa3 	add	r3, r3, r3, lsr #31
     190:	e1b010c3 	asrs	r1, r3, #1
     194:	1a000001 	bne	1a0 <register_tm_clones+0x28>
     198:	e8bd4008 	pop	{r3, lr}
     19c:	e12fff1e 	bx	lr
     1a0:	e59f2018 	ldr	r2, [pc, #24]	; 1c0 <register_tm_clones+0x48>
     1a4:	e3520000 	cmp	r2, #0
     1a8:	0afffffa 	beq	198 <register_tm_clones+0x20>
     1ac:	e1a0e00f 	mov	lr, pc
     1b0:	e12fff12 	bx	r2
     1b4:	eafffff7 	b	198 <register_tm_clones+0x20>
     1b8:	00125f40 	.word	0x00125f40
     1bc:	00125f40 	.word	0x00125f40
     1c0:	00000000 	.word	0x00000000

000001c4 <__do_global_dtors_aux>:
     1c4:	e92d4010 	push	{r4, lr}
     1c8:	e59f402c 	ldr	r4, [pc, #44]	; 1fc <__do_global_dtors_aux+0x38>
     1cc:	e5d43000 	ldrb	r3, [r4]
     1d0:	e3530000 	cmp	r3, #0
     1d4:	1a000006 	bne	1f4 <__do_global_dtors_aux+0x30>
     1d8:	ebffffd5 	bl	134 <deregister_tm_clones>
     1dc:	e59f301c 	ldr	r3, [pc, #28]	; 200 <__do_global_dtors_aux+0x3c>
     1e0:	e3530000 	cmp	r3, #0
     1e4:	159f0018 	ldrne	r0, [pc, #24]	; 204 <__do_global_dtors_aux+0x40>
     1e8:	1320f000 	nopne	{0}
     1ec:	e3a03001 	mov	r3, #1
     1f0:	e5c43000 	strb	r3, [r4]
     1f4:	e8bd4010 	pop	{r4, lr}
     1f8:	e12fff1e 	bx	lr
     1fc:	00125f40 	.word	0x00125f40
     200:	00000000 	.word	0x00000000
     204:	00007690 	.word	0x00007690

00000208 <frame_dummy>:
     208:	e92d4008 	push	{r3, lr}
     20c:	e59f3034 	ldr	r3, [pc, #52]	; 248 <frame_dummy+0x40>
     210:	e3530000 	cmp	r3, #0
     214:	159f0030 	ldrne	r0, [pc, #48]	; 24c <frame_dummy+0x44>
     218:	159f1030 	ldrne	r1, [pc, #48]	; 250 <frame_dummy+0x48>
     21c:	1320f000 	nopne	{0}
     220:	e59f002c 	ldr	r0, [pc, #44]	; 254 <frame_dummy+0x4c>
     224:	e5903000 	ldr	r3, [r0]
     228:	e3530000 	cmp	r3, #0
     22c:	0a000003 	beq	240 <frame_dummy+0x38>
     230:	e59f3020 	ldr	r3, [pc, #32]	; 258 <frame_dummy+0x50>
     234:	e3530000 	cmp	r3, #0
     238:	11a0e00f 	movne	lr, pc
     23c:	112fff13 	bxne	r3
     240:	e8bd4008 	pop	{r3, lr}
     244:	eaffffcb 	b	178 <register_tm_clones>
     248:	00000000 	.word	0x00000000
     24c:	00007690 	.word	0x00007690
     250:	00125f44 	.word	0x00125f44
     254:	000079f8 	.word	0x000079f8
     258:	00000000 	.word	0x00000000

0000025c <num_to_seg7_hex>:
	 
const char error_code = 0b01000000;

short int num_to_seg7_hex(unsigned int num){
	//make sure that the number does not exceed 0xFF
	if(num > 0xFF) return error_code | (error_code << 8);
     25c:	e35000ff 	cmp	r0, #255	; 0xff
	//extract the digits from the num given
	int first_hexdigit = num & 0xF;
	int second_hexdigit = num >> 4;
	
	//append the seg 7 codes for the hex digits
	int to_return = seg7_codes[first_hexdigit] | (seg7_codes[second_hexdigit] << 8);
     260:	93073698 	movwls	r3, #30360	; 0x7698
short int num_to_seg7_hex(unsigned int num){
	//make sure that the number does not exceed 0xFF
	if(num > 0xFF) return error_code | (error_code << 8);
	
	//extract the digits from the num given
	int first_hexdigit = num & 0xF;
     264:	9200200f 	andls	r2, r0, #15
	int second_hexdigit = num >> 4;
	
	//append the seg 7 codes for the hex digits
	int to_return = seg7_codes[first_hexdigit] | (seg7_codes[second_hexdigit] << 8);
     268:	93403000 	movtls	r3, #0
	 
const char error_code = 0b01000000;

short int num_to_seg7_hex(unsigned int num){
	//make sure that the number does not exceed 0xFF
	if(num > 0xFF) return error_code | (error_code << 8);
     26c:	83040040 	movwhi	r0, #16448	; 0x4040
	//extract the digits from the num given
	int first_hexdigit = num & 0xF;
	int second_hexdigit = num >> 4;
	
	//append the seg 7 codes for the hex digits
	int to_return = seg7_codes[first_hexdigit] | (seg7_codes[second_hexdigit] << 8);
     270:	97d30220 	ldrbls	r0, [r3, r0, lsr #4]
     274:	97d33002 	ldrbls	r3, [r3, r2]
	
	return to_return;
     278:	91830400 	orrls	r0, r3, r0, lsl #8
}
     27c:	e6bf0070 	sxth	r0, r0
     280:	e12fff1e 	bx	lr

00000284 <num_to_seg7_dec>:

short int num_to_seg7_dec(unsigned int num){
	//make sure that the number does not exceed 99
	if(num > 99) return error_code | (error_code << 8);
     284:	e3500063 	cmp	r0, #99	; 0x63
     288:	83040040 	movwhi	r0, #16448	; 0x4040
     28c:	9a000001 	bls	298 <num_to_seg7_dec+0x14>
	
	//append the seg 7 codes for the hex digits
	int to_return = seg7_codes[first_hexdigit] | (seg7_codes[second_hexdigit] << 8);
	
	return to_return;
     290:	e6bf0070 	sxth	r0, r0
     294:	e12fff1e 	bx	lr
	//make sure that the number does not exceed 99
	if(num > 99) return error_code | (error_code << 8);
	
	//extract the digits from the num given
	int first_hexdigit = num % 10;
	int second_hexdigit = num / 10;
     298:	e30c1ccd 	movw	r1, #52429	; 0xcccd
	
	//append the seg 7 codes for the hex digits
	int to_return = seg7_codes[first_hexdigit] | (seg7_codes[second_hexdigit] << 8);
     29c:	e3073698 	movw	r3, #30360	; 0x7698
	//make sure that the number does not exceed 99
	if(num > 99) return error_code | (error_code << 8);
	
	//extract the digits from the num given
	int first_hexdigit = num % 10;
	int second_hexdigit = num / 10;
     2a0:	e34c1ccc 	movt	r1, #52428	; 0xcccc
	
	//append the seg 7 codes for the hex digits
	int to_return = seg7_codes[first_hexdigit] | (seg7_codes[second_hexdigit] << 8);
     2a4:	e3403000 	movt	r3, #0
	//make sure that the number does not exceed 99
	if(num > 99) return error_code | (error_code << 8);
	
	//extract the digits from the num given
	int first_hexdigit = num % 10;
	int second_hexdigit = num / 10;
     2a8:	e0812091 	umull	r2, r1, r1, r0
     2ac:	e1a021a1 	lsr	r2, r1, #3
	
	//append the seg 7 codes for the hex digits
	int to_return = seg7_codes[first_hexdigit] | (seg7_codes[second_hexdigit] << 8);
     2b0:	e7d311a1 	ldrb	r1, [r3, r1, lsr #3]
short int num_to_seg7_dec(unsigned int num){
	//make sure that the number does not exceed 99
	if(num > 99) return error_code | (error_code << 8);
	
	//extract the digits from the num given
	int first_hexdigit = num % 10;
     2b4:	e0822102 	add	r2, r2, r2, lsl #2
     2b8:	e0400082 	sub	r0, r0, r2, lsl #1
	int second_hexdigit = num / 10;
	
	//append the seg 7 codes for the hex digits
	int to_return = seg7_codes[first_hexdigit] | (seg7_codes[second_hexdigit] << 8);
     2bc:	e7d33000 	ldrb	r3, [r3, r0]
	
	return to_return;
     2c0:	e1830401 	orr	r0, r3, r1, lsl #8
     2c4:	e6bf0070 	sxth	r0, r0
     2c8:	e12fff1e 	bx	lr

000002cc <display_status>:
	}
	
	return 0;
}

void display_status(){
     2cc:	e92d40f8 	push	{r3, r4, r5, r6, r7, lr}
	
	//store all ledr displays
	int to_display_on_ledr = 0;
	
	//display if the stream has been fully populated
	if (is_stream_fully_processed()) 
     2d0:	eb0006ec 	bl	1e88 <is_stream_fully_processed>
	volatile int * ledr_base = (int*) LEDR_BASE;
	volatile int * hex3_hex0_base = (int*) HEX3_HEX0_BASE;
	volatile int * hex5_hex4_base = (int*) HEX5_HEX4_BASE;
	
	//store all ledr displays
	int to_display_on_ledr = 0;
     2d4:	e3500000 	cmp	r0, #0
     2d8:	13a06002 	movne	r6, #2
     2dc:	03a06000 	moveq	r6, #0
	//display if the stream has been fully populated
	if (is_stream_fully_processed()) 
		to_display_on_ledr = 0x2;
	
	//display if the stream is currently valid
	if (is_stream_valid())
     2e0:	eb0006b0 	bl	1da8 <is_stream_valid>
		to_display_on_ledr = to_display_on_ledr | 0x1;
	
	//display if the audio output overflowed
	if(status_flags.volume_clipped){
     2e4:	e3053f60 	movw	r3, #24416	; 0x5f60
	//display if the stream has been fully populated
	if (is_stream_fully_processed()) 
		to_display_on_ledr = 0x2;
	
	//display if the stream is currently valid
	if (is_stream_valid())
     2e8:	e3500000 	cmp	r0, #0
		to_display_on_ledr = to_display_on_ledr | 0x1;
	
	//display if the audio output overflowed
	if(status_flags.volume_clipped){
     2ec:	e3403012 	movt	r3, #18
	if (is_stream_fully_processed()) 
		to_display_on_ledr = 0x2;
	
	//display if the stream is currently valid
	if (is_stream_valid())
		to_display_on_ledr = to_display_on_ledr | 0x1;
     2f0:	13866001 	orrne	r6, r6, #1
	
	//display if the audio output overflowed
	if(status_flags.volume_clipped){
     2f4:	e5d32003 	ldrb	r2, [r3, #3]
		to_display_on_ledr = to_display_on_ledr | 0x200;
	}
	
	//display if frequency overflow has occurred
	if(status_flags.frequency_overflow){
     2f8:	e5d33004 	ldrb	r3, [r3, #4]
	//display if the stream is currently valid
	if (is_stream_valid())
		to_display_on_ledr = to_display_on_ledr | 0x1;
	
	//display if the audio output overflowed
	if(status_flags.volume_clipped){
     2fc:	e3520000 	cmp	r2, #0
		to_display_on_ledr = to_display_on_ledr | 0x200;
     300:	13866c02 	orrne	r6, r6, #512	; 0x200
	}
	
	//display if frequency overflow has occurred
	if(status_flags.frequency_overflow){
     304:	e3530000 	cmp	r3, #0
	//store all hex displays
	int to_display_on_hex3_hex0 = 0;
	int to_display_on_hex5_hex4 = 0;
	
	//display the current volume on the hexes
	to_display_on_hex3_hex0 = num_to_seg7_dec(volume);
     308:	e3073a00 	movw	r3, #31232	; 0x7a00
		to_display_on_ledr = to_display_on_ledr | 0x200;
	}
	
	//display if frequency overflow has occurred
	if(status_flags.frequency_overflow){
		to_display_on_ledr = to_display_on_ledr | 0x100;
     30c:	13866c01 	orrne	r6, r6, #256	; 0x100
	//store all hex displays
	int to_display_on_hex3_hex0 = 0;
	int to_display_on_hex5_hex4 = 0;
	
	//display the current volume on the hexes
	to_display_on_hex3_hex0 = num_to_seg7_dec(volume);
     310:	e3403000 	movt	r3, #0
     314:	e5933000 	ldr	r3, [r3]
	return to_return;
}

short int num_to_seg7_dec(unsigned int num){
	//make sure that the number does not exceed 99
	if(num > 99) return error_code | (error_code << 8);
     318:	e3530063 	cmp	r3, #99	; 0x63
     31c:	83047040 	movwhi	r7, #16448	; 0x4040
     320:	9a00006c 	bls	4d8 <display_status+0x20c>
	
	//display the current length on the hexes as well
	double time_left = get_time_left();
     324:	eb00071c 	bl	1f9c <get_time_left>
	//decide to display the deciseconds or not
	if(time_left > 100){
     328:	e3a03000 	mov	r3, #0
     32c:	e3a02000 	mov	r2, #0
     330:	e3443059 	movt	r3, #16473	; 0x4059
	
	//display the current volume on the hexes
	to_display_on_hex3_hex0 = num_to_seg7_dec(volume);
	
	//display the current length on the hexes as well
	double time_left = get_time_left();
     334:	e1a04000 	mov	r4, r0
     338:	e1a05001 	mov	r5, r1
	//decide to display the deciseconds or not
	if(time_left > 100){
     33c:	eb0017c4 	bl	6254 <__aeabi_dcmpgt>
     340:	e3500000 	cmp	r0, #0
     344:	1a00003f 	bne	448 <display_status+0x17c>
		to_display_on_hex3_hex0 = to_display_on_hex3_hex0 | (num_to_seg7_dec(((int) time_left) % 60) << 16);
		to_display_on_hex5_hex4 = num_to_seg7_dec(((int) time_left) / 60);
	} else { //display the deciseconds
		to_display_on_hex3_hex0 = to_display_on_hex3_hex0 | (num_to_seg7_dec(((int) (time_left * 100)) % 100) << 16);
     348:	e3a03000 	mov	r3, #0
     34c:	e3a02000 	mov	r2, #0
     350:	e3443059 	movt	r3, #16473	; 0x4059
     354:	e1a00004 	mov	r0, r4
     358:	e1a01005 	mov	r1, r5
     35c:	eb00164a 	bl	5c8c <__aeabi_dmul>
     360:	eb0017c1 	bl	626c <__aeabi_d2iz>
     364:	e308251f 	movw	r2, #34079	; 0x851f
     368:	e1a01fc0 	asr	r1, r0, #31
     36c:	e34521eb 	movt	r2, #20971	; 0x51eb
     370:	e0c3c092 	smull	r12, r3, r2, r0
     374:	e3a02064 	mov	r2, #100	; 0x64
     378:	e06132c3 	rsb	r3, r1, r3, asr #5
     37c:	e0630392 	mls	r3, r2, r3, r0
     380:	e3530063 	cmp	r3, #99	; 0x63
     384:	83a03000 	movhi	r3, #0
     388:	83443040 	movthi	r3, #16448	; 0x4040
     38c:	9a000020 	bls	414 <display_status+0x148>
		to_display_on_hex5_hex4 = num_to_seg7_dec(((int) time_left) % 100);
     390:	e1a00004 	mov	r0, r4
     394:	e1a01005 	mov	r1, r5
	//decide to display the deciseconds or not
	if(time_left > 100){
		to_display_on_hex3_hex0 = to_display_on_hex3_hex0 | (num_to_seg7_dec(((int) time_left) % 60) << 16);
		to_display_on_hex5_hex4 = num_to_seg7_dec(((int) time_left) / 60);
	} else { //display the deciseconds
		to_display_on_hex3_hex0 = to_display_on_hex3_hex0 | (num_to_seg7_dec(((int) (time_left * 100)) % 100) << 16);
     398:	e1837007 	orr	r7, r3, r7
		to_display_on_hex5_hex4 = num_to_seg7_dec(((int) time_left) % 100);
     39c:	eb0017b2 	bl	626c <__aeabi_d2iz>
     3a0:	e308251f 	movw	r2, #34079	; 0x851f
     3a4:	e1a01fc0 	asr	r1, r0, #31
     3a8:	e34521eb 	movt	r2, #20971	; 0x51eb
     3ac:	e0c34092 	smull	r4, r3, r2, r0
     3b0:	e3a02064 	mov	r2, #100	; 0x64
     3b4:	e06132c3 	rsb	r3, r1, r3, asr #5
     3b8:	e0630392 	mls	r3, r2, r3, r0
     3bc:	e3530063 	cmp	r3, #99	; 0x63
     3c0:	9a000006 	bls	3e0 <display_status+0x114>
     3c4:	e3042040 	movw	r2, #16448	; 0x4040
	}
	
	//display on hex and ledr
	*ledr_base = to_display_on_ledr;
     3c8:	e3a03000 	mov	r3, #0
     3cc:	e34f3f20 	movt	r3, #65312	; 0xff20
     3d0:	e5836000 	str	r6, [r3]
	*hex3_hex0_base = to_display_on_hex3_hex0;
     3d4:	e5837020 	str	r7, [r3, #32]
	*hex5_hex4_base = to_display_on_hex5_hex4;
     3d8:	e5832030 	str	r2, [r3, #48]	; 0x30
     3dc:	e8bd80f8 	pop	{r3, r4, r5, r6, r7, pc}
	
	//extract the digits from the num given
	int first_hexdigit = num % 10;
	int second_hexdigit = num / 10;
     3e0:	e30c2ccd 	movw	r2, #52429	; 0xcccd
	
	//append the seg 7 codes for the hex digits
	int to_return = seg7_codes[first_hexdigit] | (seg7_codes[second_hexdigit] << 8);
     3e4:	e3071698 	movw	r1, #30360	; 0x7698
	//make sure that the number does not exceed 99
	if(num > 99) return error_code | (error_code << 8);
	
	//extract the digits from the num given
	int first_hexdigit = num % 10;
	int second_hexdigit = num / 10;
     3e8:	e34c2ccc 	movt	r2, #52428	; 0xcccc
	
	//append the seg 7 codes for the hex digits
	int to_return = seg7_codes[first_hexdigit] | (seg7_codes[second_hexdigit] << 8);
     3ec:	e3401000 	movt	r1, #0
	//make sure that the number does not exceed 99
	if(num > 99) return error_code | (error_code << 8);
	
	//extract the digits from the num given
	int first_hexdigit = num % 10;
	int second_hexdigit = num / 10;
     3f0:	e082c392 	umull	r12, r2, r2, r3
     3f4:	e1a001a2 	lsr	r0, r2, #3
	
	//append the seg 7 codes for the hex digits
	int to_return = seg7_codes[first_hexdigit] | (seg7_codes[second_hexdigit] << 8);
     3f8:	e7d121a2 	ldrb	r2, [r1, r2, lsr #3]
short int num_to_seg7_dec(unsigned int num){
	//make sure that the number does not exceed 99
	if(num > 99) return error_code | (error_code << 8);
	
	//extract the digits from the num given
	int first_hexdigit = num % 10;
     3fc:	e0800100 	add	r0, r0, r0, lsl #2
     400:	e0433080 	sub	r3, r3, r0, lsl #1
	int second_hexdigit = num / 10;
	
	//append the seg 7 codes for the hex digits
	int to_return = seg7_codes[first_hexdigit] | (seg7_codes[second_hexdigit] << 8);
     404:	e7d13003 	ldrb	r3, [r1, r3]
     408:	e1832402 	orr	r2, r3, r2, lsl #8
     40c:	e6bf2072 	sxth	r2, r2
     410:	eaffffec 	b	3c8 <display_status+0xfc>
	//make sure that the number does not exceed 99
	if(num > 99) return error_code | (error_code << 8);
	
	//extract the digits from the num given
	int first_hexdigit = num % 10;
	int second_hexdigit = num / 10;
     414:	e30c0ccd 	movw	r0, #52429	; 0xcccd
	
	//append the seg 7 codes for the hex digits
	int to_return = seg7_codes[first_hexdigit] | (seg7_codes[second_hexdigit] << 8);
     418:	e3072698 	movw	r2, #30360	; 0x7698
	//make sure that the number does not exceed 99
	if(num > 99) return error_code | (error_code << 8);
	
	//extract the digits from the num given
	int first_hexdigit = num % 10;
	int second_hexdigit = num / 10;
     41c:	e34c0ccc 	movt	r0, #52428	; 0xcccc
	
	//append the seg 7 codes for the hex digits
	int to_return = seg7_codes[first_hexdigit] | (seg7_codes[second_hexdigit] << 8);
     420:	e3402000 	movt	r2, #0
	//make sure that the number does not exceed 99
	if(num > 99) return error_code | (error_code << 8);
	
	//extract the digits from the num given
	int first_hexdigit = num % 10;
	int second_hexdigit = num / 10;
     424:	e0801390 	umull	r1, r0, r0, r3
     428:	e1a011a0 	lsr	r1, r0, #3
	
	//append the seg 7 codes for the hex digits
	int to_return = seg7_codes[first_hexdigit] | (seg7_codes[second_hexdigit] << 8);
     42c:	e7d201a0 	ldrb	r0, [r2, r0, lsr #3]
short int num_to_seg7_dec(unsigned int num){
	//make sure that the number does not exceed 99
	if(num > 99) return error_code | (error_code << 8);
	
	//extract the digits from the num given
	int first_hexdigit = num % 10;
     430:	e0811101 	add	r1, r1, r1, lsl #2
     434:	e0433081 	sub	r3, r3, r1, lsl #1
	int second_hexdigit = num / 10;
	
	//append the seg 7 codes for the hex digits
	int to_return = seg7_codes[first_hexdigit] | (seg7_codes[second_hexdigit] << 8);
     438:	e7d23003 	ldrb	r3, [r2, r3]
     43c:	e1833400 	orr	r3, r3, r0, lsl #8
     440:	e1a03803 	lsl	r3, r3, #16
     444:	eaffffd1 	b	390 <display_status+0xc4>
	
	//display the current length on the hexes as well
	double time_left = get_time_left();
	//decide to display the deciseconds or not
	if(time_left > 100){
		to_display_on_hex3_hex0 = to_display_on_hex3_hex0 | (num_to_seg7_dec(((int) time_left) % 60) << 16);
     448:	e1a01005 	mov	r1, r5
     44c:	e1a00004 	mov	r0, r4
     450:	eb001785 	bl	626c <__aeabi_d2iz>
     454:	e3083889 	movw	r3, #34953	; 0x8889
     458:	e1a02fc0 	asr	r2, r0, #31
     45c:	e3483888 	movt	r3, #34952	; 0x8888
     460:	e0c34093 	smull	r4, r3, r3, r0
     464:	e0833000 	add	r3, r3, r0
     468:	e06232c3 	rsb	r3, r2, r3, asr #5
     46c:	e0633203 	rsb	r3, r3, r3, lsl #4
     470:	e0403103 	sub	r3, r0, r3, lsl #2
	return to_return;
}

short int num_to_seg7_dec(unsigned int num){
	//make sure that the number does not exceed 99
	if(num > 99) return error_code | (error_code << 8);
     474:	e3530063 	cmp	r3, #99	; 0x63
     478:	83a01000 	movhi	r1, #0
     47c:	83441040 	movthi	r1, #16448	; 0x4040
     480:	9a000021 	bls	50c <display_status+0x240>
		to_display_on_hex5_hex4 = num_to_seg7_dec(((int) time_left) / 60);
     484:	e3083889 	movw	r3, #34953	; 0x8889
	
	//display the current length on the hexes as well
	double time_left = get_time_left();
	//decide to display the deciseconds or not
	if(time_left > 100){
		to_display_on_hex3_hex0 = to_display_on_hex3_hex0 | (num_to_seg7_dec(((int) time_left) % 60) << 16);
     488:	e1817007 	orr	r7, r1, r7
		to_display_on_hex5_hex4 = num_to_seg7_dec(((int) time_left) / 60);
     48c:	e3483888 	movt	r3, #34952	; 0x8888
     490:	e0c3c093 	smull	r12, r3, r3, r0
     494:	e0830000 	add	r0, r3, r0
     498:	e06222c0 	rsb	r2, r2, r0, asr #5
     49c:	e3520063 	cmp	r2, #99	; 0x63
     4a0:	8affffc7 	bhi	3c4 <display_status+0xf8>
	
	//extract the digits from the num given
	int first_hexdigit = num % 10;
	int second_hexdigit = num / 10;
     4a4:	e30c0ccd 	movw	r0, #52429	; 0xcccd
	
	//append the seg 7 codes for the hex digits
	int to_return = seg7_codes[first_hexdigit] | (seg7_codes[second_hexdigit] << 8);
     4a8:	e3073698 	movw	r3, #30360	; 0x7698
	//make sure that the number does not exceed 99
	if(num > 99) return error_code | (error_code << 8);
	
	//extract the digits from the num given
	int first_hexdigit = num % 10;
	int second_hexdigit = num / 10;
     4ac:	e34c0ccc 	movt	r0, #52428	; 0xcccc
	
	//append the seg 7 codes for the hex digits
	int to_return = seg7_codes[first_hexdigit] | (seg7_codes[second_hexdigit] << 8);
     4b0:	e3403000 	movt	r3, #0
	//make sure that the number does not exceed 99
	if(num > 99) return error_code | (error_code << 8);
	
	//extract the digits from the num given
	int first_hexdigit = num % 10;
	int second_hexdigit = num / 10;
     4b4:	e0801290 	umull	r1, r0, r0, r2
     4b8:	e1a011a0 	lsr	r1, r0, #3
	
	//append the seg 7 codes for the hex digits
	int to_return = seg7_codes[first_hexdigit] | (seg7_codes[second_hexdigit] << 8);
     4bc:	e7d3c1a0 	ldrb	r12, [r3, r0, lsr #3]
short int num_to_seg7_dec(unsigned int num){
	//make sure that the number does not exceed 99
	if(num > 99) return error_code | (error_code << 8);
	
	//extract the digits from the num given
	int first_hexdigit = num % 10;
     4c0:	e0811101 	add	r1, r1, r1, lsl #2
     4c4:	e0422081 	sub	r2, r2, r1, lsl #1
	int second_hexdigit = num / 10;
	
	//append the seg 7 codes for the hex digits
	int to_return = seg7_codes[first_hexdigit] | (seg7_codes[second_hexdigit] << 8);
     4c8:	e7d33002 	ldrb	r3, [r3, r2]
     4cc:	e183240c 	orr	r2, r3, r12, lsl #8
     4d0:	e6bf2072 	sxth	r2, r2
     4d4:	eaffffbb 	b	3c8 <display_status+0xfc>
	//make sure that the number does not exceed 99
	if(num > 99) return error_code | (error_code << 8);
	
	//extract the digits from the num given
	int first_hexdigit = num % 10;
	int second_hexdigit = num / 10;
     4d8:	e30c0ccd 	movw	r0, #52429	; 0xcccd
	
	//append the seg 7 codes for the hex digits
	int to_return = seg7_codes[first_hexdigit] | (seg7_codes[second_hexdigit] << 8);
     4dc:	e3072698 	movw	r2, #30360	; 0x7698
	//make sure that the number does not exceed 99
	if(num > 99) return error_code | (error_code << 8);
	
	//extract the digits from the num given
	int first_hexdigit = num % 10;
	int second_hexdigit = num / 10;
     4e0:	e34c0ccc 	movt	r0, #52428	; 0xcccc
	
	//append the seg 7 codes for the hex digits
	int to_return = seg7_codes[first_hexdigit] | (seg7_codes[second_hexdigit] << 8);
     4e4:	e3402000 	movt	r2, #0
	//make sure that the number does not exceed 99
	if(num > 99) return error_code | (error_code << 8);
	
	//extract the digits from the num given
	int first_hexdigit = num % 10;
	int second_hexdigit = num / 10;
     4e8:	e0801390 	umull	r1, r0, r0, r3
     4ec:	e1a011a0 	lsr	r1, r0, #3
	
	//append the seg 7 codes for the hex digits
	int to_return = seg7_codes[first_hexdigit] | (seg7_codes[second_hexdigit] << 8);
     4f0:	e7d271a0 	ldrb	r7, [r2, r0, lsr #3]
short int num_to_seg7_dec(unsigned int num){
	//make sure that the number does not exceed 99
	if(num > 99) return error_code | (error_code << 8);
	
	//extract the digits from the num given
	int first_hexdigit = num % 10;
     4f4:	e0811101 	add	r1, r1, r1, lsl #2
     4f8:	e0433081 	sub	r3, r3, r1, lsl #1
	int second_hexdigit = num / 10;
	
	//append the seg 7 codes for the hex digits
	int to_return = seg7_codes[first_hexdigit] | (seg7_codes[second_hexdigit] << 8);
     4fc:	e7d23003 	ldrb	r3, [r2, r3]
     500:	e1837407 	orr	r7, r3, r7, lsl #8
     504:	e6bf7077 	sxth	r7, r7
     508:	eaffff85 	b	324 <display_status+0x58>
	//make sure that the number does not exceed 99
	if(num > 99) return error_code | (error_code << 8);
	
	//extract the digits from the num given
	int first_hexdigit = num % 10;
	int second_hexdigit = num / 10;
     50c:	e30c1ccd 	movw	r1, #52429	; 0xcccd
	
	//append the seg 7 codes for the hex digits
	int to_return = seg7_codes[first_hexdigit] | (seg7_codes[second_hexdigit] << 8);
     510:	e307c698 	movw	r12, #30360	; 0x7698
	//make sure that the number does not exceed 99
	if(num > 99) return error_code | (error_code << 8);
	
	//extract the digits from the num given
	int first_hexdigit = num % 10;
	int second_hexdigit = num / 10;
     514:	e34c1ccc 	movt	r1, #52428	; 0xcccc
	
	//append the seg 7 codes for the hex digits
	int to_return = seg7_codes[first_hexdigit] | (seg7_codes[second_hexdigit] << 8);
     518:	e340c000 	movt	r12, #0
	//make sure that the number does not exceed 99
	if(num > 99) return error_code | (error_code << 8);
	
	//extract the digits from the num given
	int first_hexdigit = num % 10;
	int second_hexdigit = num / 10;
     51c:	e0814391 	umull	r4, r1, r1, r3
     520:	e1a041a1 	lsr	r4, r1, #3
	
	//append the seg 7 codes for the hex digits
	int to_return = seg7_codes[first_hexdigit] | (seg7_codes[second_hexdigit] << 8);
     524:	e7dc11a1 	ldrb	r1, [r12, r1, lsr #3]
short int num_to_seg7_dec(unsigned int num){
	//make sure that the number does not exceed 99
	if(num > 99) return error_code | (error_code << 8);
	
	//extract the digits from the num given
	int first_hexdigit = num % 10;
     528:	e0844104 	add	r4, r4, r4, lsl #2
     52c:	e0433084 	sub	r3, r3, r4, lsl #1
	int second_hexdigit = num / 10;
	
	//append the seg 7 codes for the hex digits
	int to_return = seg7_codes[first_hexdigit] | (seg7_codes[second_hexdigit] << 8);
     530:	e7dc3003 	ldrb	r3, [r12, r3]
     534:	e1831401 	orr	r1, r3, r1, lsl #8
     538:	e1a01801 	lsl	r1, r1, #16
     53c:	eaffffd0 	b	484 <display_status+0x1b8>

00000540 <stop_all_audio_playback>:
}

void stop_all_audio_playback(){
	volatile int * audio_base = (int *) AUDIO_BASE;
	
	unsigned int fifo_space = *(audio_base + 1);
     540:	e3031fff 	movw	r1, #16383	; 0x3fff
     544:	e34f1f20 	movt	r1, #65312	; 0xff20
     548:	e5110fbb 	ldr	r0, [r1, #-4027]	; 0xfffff045
	
	//stop audio playback for the right
	unsigned int num_samples_right = (unsigned int) ((fifo_space >> 16) & 0xFF);
     54c:	e7e73850 	ubfx	r3, r0, #16, #8
	unsigned int num_samples_left = (unsigned int) ((fifo_space >> 24) & 0xFF);
	stop_audio_playback(&num_samples_left, audio_base + 2);
}

void stop_audio_playback(unsigned int * num_samples, volatile int * audio_fifo){	
	while (*num_samples > 0){
     550:	e3530000 	cmp	r3, #0
		//write nothing to the audio fifo (merely to clear the interrupt)
		*audio_fifo = 0;
     554:	13a02000 	movne	r2, #0
	unsigned int num_samples_left = (unsigned int) ((fifo_space >> 24) & 0xFF);
	stop_audio_playback(&num_samples_left, audio_base + 2);
}

void stop_audio_playback(unsigned int * num_samples, volatile int * audio_fifo){	
	while (*num_samples > 0){
     558:	0a000002 	beq	568 <stop_all_audio_playback+0x28>
     55c:	e2533001 	subs	r3, r3, #1
		//write nothing to the audio fifo (merely to clear the interrupt)
		*audio_fifo = 0;
     560:	e5012fb3 	str	r2, [r1, #-4019]	; 0xfffff04d
	unsigned int num_samples_left = (unsigned int) ((fifo_space >> 24) & 0xFF);
	stop_audio_playback(&num_samples_left, audio_base + 2);
}

void stop_audio_playback(unsigned int * num_samples, volatile int * audio_fifo){	
	while (*num_samples > 0){
     564:	1afffffc 	bne	55c <stop_all_audio_playback+0x1c>
     568:	e1b03c20 	lsrs	r3, r0, #24
		*num_samples = *num_samples - 1;
	}
	
	//turn off interrupts
	volatile int * audio_base = (int*) AUDIO_BASE;
	*audio_base = 0b0000;
     56c:	e3031fff 	movw	r1, #16383	; 0x3fff
	
	//set the status flags
	status_flags.is_playing = false;
     570:	e3050f60 	movw	r0, #24416	; 0x5f60
		*num_samples = *num_samples - 1;
	}
	
	//turn off interrupts
	volatile int * audio_base = (int*) AUDIO_BASE;
	*audio_base = 0b0000;
     574:	e3a02000 	mov	r2, #0
     578:	e34f1f20 	movt	r1, #65312	; 0xff20
	
	//set the status flags
	status_flags.is_playing = false;
     57c:	e3400012 	movt	r0, #18
		*num_samples = *num_samples - 1;
	}
	
	//turn off interrupts
	volatile int * audio_base = (int*) AUDIO_BASE;
	*audio_base = 0b0000;
     580:	e5012fbf 	str	r2, [r1, #-4031]	; 0xfffff041
	
	//set the status flags
	status_flags.is_playing = false;
     584:	e5c02002 	strb	r2, [r0, #2]
	unsigned int num_samples_left = (unsigned int) ((fifo_space >> 24) & 0xFF);
	stop_audio_playback(&num_samples_left, audio_base + 2);
}

void stop_audio_playback(unsigned int * num_samples, volatile int * audio_fifo){	
	while (*num_samples > 0){
     588:	0a000002 	beq	598 <stop_all_audio_playback+0x58>
     58c:	e2533001 	subs	r3, r3, #1
		//write nothing to the audio fifo (merely to clear the interrupt)
		*audio_fifo = 0;
     590:	e5012fb7 	str	r2, [r1, #-4023]	; 0xfffff049
	unsigned int num_samples_left = (unsigned int) ((fifo_space >> 24) & 0xFF);
	stop_audio_playback(&num_samples_left, audio_base + 2);
}

void stop_audio_playback(unsigned int * num_samples, volatile int * audio_fifo){	
	while (*num_samples > 0){
     594:	1afffffc 	bne	58c <stop_all_audio_playback+0x4c>
		*num_samples = *num_samples - 1;
	}
	
	//turn off interrupts
	volatile int * audio_base = (int*) AUDIO_BASE;
	*audio_base = 0b0000;
     598:	e3033fff 	movw	r3, #16383	; 0x3fff
     59c:	e3a02000 	mov	r2, #0
     5a0:	e34f3f20 	movt	r3, #65312	; 0xff20
     5a4:	e5032fbf 	str	r2, [r3, #-4031]	; 0xfffff041
     5a8:	e12fff1e 	bx	lr

000005ac <stop_audio_playback>:
	unsigned int num_samples_left = (unsigned int) ((fifo_space >> 24) & 0xFF);
	stop_audio_playback(&num_samples_left, audio_base + 2);
}

void stop_audio_playback(unsigned int * num_samples, volatile int * audio_fifo){	
	while (*num_samples > 0){
     5ac:	e5903000 	ldr	r3, [r0]
     5b0:	e3530000 	cmp	r3, #0
		//write nothing to the audio fifo (merely to clear the interrupt)
		*audio_fifo = 0;
     5b4:	13a02000 	movne	r2, #0
	unsigned int num_samples_left = (unsigned int) ((fifo_space >> 24) & 0xFF);
	stop_audio_playback(&num_samples_left, audio_base + 2);
}

void stop_audio_playback(unsigned int * num_samples, volatile int * audio_fifo){	
	while (*num_samples > 0){
     5b8:	0a000005 	beq	5d4 <stop_audio_playback+0x28>
		//write nothing to the audio fifo (merely to clear the interrupt)
		*audio_fifo = 0;
     5bc:	e5812000 	str	r2, [r1]
		
		//advance the number of samples
		*num_samples = *num_samples - 1;
     5c0:	e5903000 	ldr	r3, [r0]
     5c4:	e2433001 	sub	r3, r3, #1
	unsigned int num_samples_left = (unsigned int) ((fifo_space >> 24) & 0xFF);
	stop_audio_playback(&num_samples_left, audio_base + 2);
}

void stop_audio_playback(unsigned int * num_samples, volatile int * audio_fifo){	
	while (*num_samples > 0){
     5c8:	e3530000 	cmp	r3, #0
		//write nothing to the audio fifo (merely to clear the interrupt)
		*audio_fifo = 0;
		
		//advance the number of samples
		*num_samples = *num_samples - 1;
     5cc:	e5803000 	str	r3, [r0]
	unsigned int num_samples_left = (unsigned int) ((fifo_space >> 24) & 0xFF);
	stop_audio_playback(&num_samples_left, audio_base + 2);
}

void stop_audio_playback(unsigned int * num_samples, volatile int * audio_fifo){	
	while (*num_samples > 0){
     5d0:	1afffff9 	bne	5bc <stop_audio_playback+0x10>
		*num_samples = *num_samples - 1;
	}
	
	//turn off interrupts
	volatile int * audio_base = (int*) AUDIO_BASE;
	*audio_base = 0b0000;
     5d4:	e3031fff 	movw	r1, #16383	; 0x3fff
	
	//set the status flags
	status_flags.is_playing = false;
     5d8:	e3053f60 	movw	r3, #24416	; 0x5f60
		*num_samples = *num_samples - 1;
	}
	
	//turn off interrupts
	volatile int * audio_base = (int*) AUDIO_BASE;
	*audio_base = 0b0000;
     5dc:	e3a02000 	mov	r2, #0
     5e0:	e34f1f20 	movt	r1, #65312	; 0xff20
	
	//set the status flags
	status_flags.is_playing = false;
     5e4:	e3403012 	movt	r3, #18
		*num_samples = *num_samples - 1;
	}
	
	//turn off interrupts
	volatile int * audio_base = (int*) AUDIO_BASE;
	*audio_base = 0b0000;
     5e8:	e5012fbf 	str	r2, [r1, #-4031]	; 0xfffff041
	
	//set the status flags
	status_flags.is_playing = false;
     5ec:	e5c32002 	strb	r2, [r3, #2]
     5f0:	e12fff1e 	bx	lr

000005f4 <start_audio_playback>:
}

void start_audio_playback(){
     5f4:	e92d4008 	push	{r3, lr}
	//check to see if the stream is valid
	if(!is_stream_valid()) return;
     5f8:	eb0005ea 	bl	1da8 <is_stream_valid>
     5fc:	e3500000 	cmp	r0, #0
     600:	08bd8008 	popeq	{r3, pc}
	
	//turn on interrupts
	volatile int * audio_base = (int*) AUDIO_BASE;
	*audio_base = 0b0010;
     604:	e3032fff 	movw	r2, #16383	; 0x3fff
	
	//set the playing flag
	status_flags.is_playing = true;
     608:	e3053f60 	movw	r3, #24416	; 0x5f60
	//check to see if the stream is valid
	if(!is_stream_valid()) return;
	
	//turn on interrupts
	volatile int * audio_base = (int*) AUDIO_BASE;
	*audio_base = 0b0010;
     60c:	e34f2f20 	movt	r2, #65312	; 0xff20
     610:	e3a01002 	mov	r1, #2
     614:	e5021fbf 	str	r1, [r2, #-4031]	; 0xfffff041
	
	//set the playing flag
	status_flags.is_playing = true;
     618:	e3403012 	movt	r3, #18
     61c:	e3a02001 	mov	r2, #1
     620:	e5c32002 	strb	r2, [r3, #2]
     624:	e8bd8008 	pop	{r3, pc}

00000628 <keys_ISR>:
}

void keys_ISR(){
     628:	e92d4038 	push	{r3, r4, r5, lr}
	volatile int * key_base = (int*) KEY_BASE;
	
	//read the reset the edgecapture bits
	int edgecapture = *(key_base + 3);
     62c:	e3a03000 	mov	r3, #0
     630:	e34f3f20 	movt	r3, #65312	; 0xff20
     634:	e593405c 	ldr	r4, [r3, #92]	; 0x5c
	*(key_base + 3) = edgecapture;
	
	//play selected song with key press 0
	if(edgecapture & 0b0001){		
     638:	e3140001 	tst	r4, #1
void keys_ISR(){
	volatile int * key_base = (int*) KEY_BASE;
	
	//read the reset the edgecapture bits
	int edgecapture = *(key_base + 3);
	*(key_base + 3) = edgecapture;
     63c:	e583405c 	str	r4, [r3, #92]	; 0x5c
	
	//play selected song with key press 0
	if(edgecapture & 0b0001){		
     640:	0a00001c 	beq	6b8 <keys_ISR+0x90>
		if(status_flags.is_playing){
     644:	e3055f60 	movw	r5, #24416	; 0x5f60
     648:	e3405012 	movt	r5, #18
     64c:	e5d53002 	ldrb	r3, [r5, #2]
     650:	e3530000 	cmp	r3, #0
     654:	0a000031 	beq	720 <keys_ISR+0xf8>
}

void stop_all_audio_playback(){
	volatile int * audio_base = (int *) AUDIO_BASE;
	
	unsigned int fifo_space = *(audio_base + 1);
     658:	e3031fff 	movw	r1, #16383	; 0x3fff
     65c:	e34f1f20 	movt	r1, #65312	; 0xff20
     660:	e5110fbb 	ldr	r0, [r1, #-4027]	; 0xfffff045
	
	//stop audio playback for the right
	unsigned int num_samples_right = (unsigned int) ((fifo_space >> 16) & 0xFF);
     664:	e7e73850 	ubfx	r3, r0, #16, #8
	unsigned int num_samples_left = (unsigned int) ((fifo_space >> 24) & 0xFF);
	stop_audio_playback(&num_samples_left, audio_base + 2);
}

void stop_audio_playback(unsigned int * num_samples, volatile int * audio_fifo){	
	while (*num_samples > 0){
     668:	e3530000 	cmp	r3, #0
		//write nothing to the audio fifo (merely to clear the interrupt)
		*audio_fifo = 0;
     66c:	13a02000 	movne	r2, #0
	unsigned int num_samples_left = (unsigned int) ((fifo_space >> 24) & 0xFF);
	stop_audio_playback(&num_samples_left, audio_base + 2);
}

void stop_audio_playback(unsigned int * num_samples, volatile int * audio_fifo){	
	while (*num_samples > 0){
     670:	0a000002 	beq	680 <keys_ISR+0x58>
     674:	e2533001 	subs	r3, r3, #1
		//write nothing to the audio fifo (merely to clear the interrupt)
		*audio_fifo = 0;
     678:	e5012fb3 	str	r2, [r1, #-4019]	; 0xfffff04d
	unsigned int num_samples_left = (unsigned int) ((fifo_space >> 24) & 0xFF);
	stop_audio_playback(&num_samples_left, audio_base + 2);
}

void stop_audio_playback(unsigned int * num_samples, volatile int * audio_fifo){	
	while (*num_samples > 0){
     67c:	1afffffc 	bne	674 <keys_ISR+0x4c>
     680:	e1b03c20 	lsrs	r3, r0, #24
		*num_samples = *num_samples - 1;
	}
	
	//turn off interrupts
	volatile int * audio_base = (int*) AUDIO_BASE;
	*audio_base = 0b0000;
     684:	e3031fff 	movw	r1, #16383	; 0x3fff
     688:	e3a02000 	mov	r2, #0
     68c:	e34f1f20 	movt	r1, #65312	; 0xff20
     690:	e5012fbf 	str	r2, [r1, #-4031]	; 0xfffff041
	
	//set the status flags
	status_flags.is_playing = false;
     694:	e5c52002 	strb	r2, [r5, #2]
	unsigned int num_samples_left = (unsigned int) ((fifo_space >> 24) & 0xFF);
	stop_audio_playback(&num_samples_left, audio_base + 2);
}

void stop_audio_playback(unsigned int * num_samples, volatile int * audio_fifo){	
	while (*num_samples > 0){
     698:	0a000002 	beq	6a8 <keys_ISR+0x80>
     69c:	e2533001 	subs	r3, r3, #1
		//write nothing to the audio fifo (merely to clear the interrupt)
		*audio_fifo = 0;
     6a0:	e5012fb7 	str	r2, [r1, #-4023]	; 0xfffff049
	unsigned int num_samples_left = (unsigned int) ((fifo_space >> 24) & 0xFF);
	stop_audio_playback(&num_samples_left, audio_base + 2);
}

void stop_audio_playback(unsigned int * num_samples, volatile int * audio_fifo){	
	while (*num_samples > 0){
     6a4:	1afffffc 	bne	69c <keys_ISR+0x74>
		*num_samples = *num_samples - 1;
	}
	
	//turn off interrupts
	volatile int * audio_base = (int*) AUDIO_BASE;
	*audio_base = 0b0000;
     6a8:	e3033fff 	movw	r3, #16383	; 0x3fff
     6ac:	e3a02000 	mov	r2, #0
     6b0:	e34f3f20 	movt	r3, #65312	; 0xff20
     6b4:	e5032fbf 	str	r2, [r3, #-4031]	; 0xfffff041
			start_audio_playback();
		}
	}
	
	//change song to selected on switches and clear current queue if key press 1
	if(edgecapture & 0b0010){
     6b8:	e3140002 	tst	r4, #2
     6bc:	0a000006 	beq	6dc <keys_ISR+0xb4>
		status_flags.change_song = true;
     6c0:	e3055f60 	movw	r5, #24416	; 0x5f60
     6c4:	e3a02001 	mov	r2, #1
     6c8:	e3405012 	movt	r5, #18
		
		//stop playing if there is a song currently playing
		if(status_flags.is_playing){
     6cc:	e5d53002 	ldrb	r3, [r5, #2]
		}
	}
	
	//change song to selected on switches and clear current queue if key press 1
	if(edgecapture & 0b0010){
		status_flags.change_song = true;
     6d0:	e5c52001 	strb	r2, [r5, #1]
		
		//stop playing if there is a song currently playing
		if(status_flags.is_playing){
     6d4:	e3530000 	cmp	r3, #0
     6d8:	1a00001a 	bne	748 <keys_ISR+0x120>
			stop_all_audio_playback();
		}
	}
	
	//increase volume if key press 2
	if(edgecapture & 0b0100){
     6dc:	e3140004 	tst	r4, #4
     6e0:	0a000005 	beq	6fc <keys_ISR+0xd4>
		if(volume < max_volume) volume++;
     6e4:	e3073a00 	movw	r3, #31232	; 0x7a00
     6e8:	e3403000 	movt	r3, #0
     6ec:	e5932000 	ldr	r2, [r3]
     6f0:	e3520009 	cmp	r2, #9
     6f4:	92822001 	addls	r2, r2, #1
     6f8:	95832000 	strls	r2, [r3]
	}
	
	//decrease volume if key press 3
	if(edgecapture & 0b1000){
     6fc:	e3140008 	tst	r4, #8
     700:	08bd8038 	popeq	{r3, r4, r5, pc}
		if(volume > min_volume) volume--;
     704:	e3073a00 	movw	r3, #31232	; 0x7a00
     708:	e3403000 	movt	r3, #0
     70c:	e5932000 	ldr	r2, [r3]
     710:	e3520000 	cmp	r2, #0
     714:	12422001 	subne	r2, r2, #1
     718:	15832000 	strne	r2, [r3]
     71c:	e8bd8038 	pop	{r3, r4, r5, pc}
	status_flags.is_playing = false;
}

void start_audio_playback(){
	//check to see if the stream is valid
	if(!is_stream_valid()) return;
     720:	eb0005a0 	bl	1da8 <is_stream_valid>
     724:	e3500000 	cmp	r0, #0
     728:	0affffe2 	beq	6b8 <keys_ISR+0x90>
	
	//turn on interrupts
	volatile int * audio_base = (int*) AUDIO_BASE;
	*audio_base = 0b0010;
     72c:	e3033fff 	movw	r3, #16383	; 0x3fff
     730:	e3a02002 	mov	r2, #2
     734:	e34f3f20 	movt	r3, #65312	; 0xff20
     738:	e5032fbf 	str	r2, [r3, #-4031]	; 0xfffff041
	
	//set the playing flag
	status_flags.is_playing = true;
     73c:	e3a03001 	mov	r3, #1
     740:	e5c53002 	strb	r3, [r5, #2]
     744:	eaffffdb 	b	6b8 <keys_ISR+0x90>
}

void stop_all_audio_playback(){
	volatile int * audio_base = (int *) AUDIO_BASE;
	
	unsigned int fifo_space = *(audio_base + 1);
     748:	e3031fff 	movw	r1, #16383	; 0x3fff
     74c:	e34f1f20 	movt	r1, #65312	; 0xff20
     750:	e5110fbb 	ldr	r0, [r1, #-4027]	; 0xfffff045
	
	//stop audio playback for the right
	unsigned int num_samples_right = (unsigned int) ((fifo_space >> 16) & 0xFF);
     754:	e7e73850 	ubfx	r3, r0, #16, #8
	unsigned int num_samples_left = (unsigned int) ((fifo_space >> 24) & 0xFF);
	stop_audio_playback(&num_samples_left, audio_base + 2);
}

void stop_audio_playback(unsigned int * num_samples, volatile int * audio_fifo){	
	while (*num_samples > 0){
     758:	e3530000 	cmp	r3, #0
		//write nothing to the audio fifo (merely to clear the interrupt)
		*audio_fifo = 0;
     75c:	13a02000 	movne	r2, #0
	unsigned int num_samples_left = (unsigned int) ((fifo_space >> 24) & 0xFF);
	stop_audio_playback(&num_samples_left, audio_base + 2);
}

void stop_audio_playback(unsigned int * num_samples, volatile int * audio_fifo){	
	while (*num_samples > 0){
     760:	0a000002 	beq	770 <keys_ISR+0x148>
     764:	e2533001 	subs	r3, r3, #1
		//write nothing to the audio fifo (merely to clear the interrupt)
		*audio_fifo = 0;
     768:	e5012fb3 	str	r2, [r1, #-4019]	; 0xfffff04d
	unsigned int num_samples_left = (unsigned int) ((fifo_space >> 24) & 0xFF);
	stop_audio_playback(&num_samples_left, audio_base + 2);
}

void stop_audio_playback(unsigned int * num_samples, volatile int * audio_fifo){	
	while (*num_samples > 0){
     76c:	1afffffc 	bne	764 <keys_ISR+0x13c>
     770:	e1b03c20 	lsrs	r3, r0, #24
		*num_samples = *num_samples - 1;
	}
	
	//turn off interrupts
	volatile int * audio_base = (int*) AUDIO_BASE;
	*audio_base = 0b0000;
     774:	e3031fff 	movw	r1, #16383	; 0x3fff
     778:	e3a02000 	mov	r2, #0
     77c:	e34f1f20 	movt	r1, #65312	; 0xff20
     780:	e5012fbf 	str	r2, [r1, #-4031]	; 0xfffff041
	
	//set the status flags
	status_flags.is_playing = false;
     784:	e5c52002 	strb	r2, [r5, #2]
	unsigned int num_samples_left = (unsigned int) ((fifo_space >> 24) & 0xFF);
	stop_audio_playback(&num_samples_left, audio_base + 2);
}

void stop_audio_playback(unsigned int * num_samples, volatile int * audio_fifo){	
	while (*num_samples > 0){
     788:	0a000002 	beq	798 <keys_ISR+0x170>
     78c:	e2533001 	subs	r3, r3, #1
		//write nothing to the audio fifo (merely to clear the interrupt)
		*audio_fifo = 0;
     790:	e5012fb7 	str	r2, [r1, #-4023]	; 0xfffff049
	unsigned int num_samples_left = (unsigned int) ((fifo_space >> 24) & 0xFF);
	stop_audio_playback(&num_samples_left, audio_base + 2);
}

void stop_audio_playback(unsigned int * num_samples, volatile int * audio_fifo){	
	while (*num_samples > 0){
     794:	1afffffc 	bne	78c <keys_ISR+0x164>
		*num_samples = *num_samples - 1;
	}
	
	//turn off interrupts
	volatile int * audio_base = (int*) AUDIO_BASE;
	*audio_base = 0b0000;
     798:	e3033fff 	movw	r3, #16383	; 0x3fff
     79c:	e3a02000 	mov	r2, #0
     7a0:	e34f3f20 	movt	r3, #65312	; 0xff20
     7a4:	e5032fbf 	str	r2, [r3, #-4031]	; 0xfffff041
     7a8:	eaffffcb 	b	6dc <keys_ISR+0xb4>

000007ac <audio_ISR>:
	if(edgecapture & 0b1000){
		if(volume > min_volume) volume--;
	}
}

void audio_ISR(){
     7ac:	e92d4ff0 	push	{r4, r5, r6, r7, r8, r9, r10, r11, lr}
     7b0:	e24dd014 	sub	sp, sp, #20
	//catch if there is nothing to write to the audio queue
	if(!is_stream_valid()) while (1);
     7b4:	eb00057b 	bl	1da8 <is_stream_valid>
     7b8:	e3500000 	cmp	r0, #0
     7bc:	1a000000 	bne	7c4 <audio_ISR+0x18>
     7c0:	eafffffe 	b	7c0 <audio_ISR+0x14>
	volatile int * audio_left = audio_base + 2;
	
	unsigned int fifo_space = *(audio_base + 1);
		
	//check the change in amplitude of the waves
	double amplitude_modulation = pow(volume_sensitivity, ((double) volume) - ((double) default_volume));
     7c4:	e3073a00 	movw	r3, #31232	; 0x7a00
	
	volatile int * audio_base = (int *) AUDIO_BASE;
	volatile int * audio_right = audio_base + 3;
	volatile int * audio_left = audio_base + 2;
	
	unsigned int fifo_space = *(audio_base + 1);
     7c8:	e3034fff 	movw	r4, #16383	; 0x3fff
		
	//check the change in amplitude of the waves
	double amplitude_modulation = pow(volume_sensitivity, ((double) volume) - ((double) default_volume));
     7cc:	e3403000 	movt	r3, #0
	
	volatile int * audio_base = (int *) AUDIO_BASE;
	volatile int * audio_right = audio_base + 3;
	volatile int * audio_left = audio_base + 2;
	
	unsigned int fifo_space = *(audio_base + 1);
     7d0:	e34f4f20 	movt	r4, #65312	; 0xff20
		
	//check the change in amplitude of the waves
	double amplitude_modulation = pow(volume_sensitivity, ((double) volume) - ((double) default_volume));
     7d4:	e5930000 	ldr	r0, [r3]
		
		if(num_samples_right > 0){
			//check for overflow
			double sample_right = get_sample(PLAYBACK_STEREO_R) + sample_mono;
			if(abs(sample_right) > INT_MAX / amplitude_modulation){
				status_flags.volume_clipped = true;
     7d8:	e3058f60 	movw	r8, #24416	; 0x5f60
	
	volatile int * audio_base = (int *) AUDIO_BASE;
	volatile int * audio_right = audio_base + 3;
	volatile int * audio_left = audio_base + 2;
	
	unsigned int fifo_space = *(audio_base + 1);
     7dc:	e514bfbb 	ldr	r11, [r4, #-4027]	; 0xfffff045
			if(abs(sample_right) > INT_MAX / amplitude_modulation){
				status_flags.volume_clipped = true;
			}
			
			//retrieve and write a sample to the right
			*audio_right = (int) (sample_right * amplitude_modulation);
     7e0:	e1a09004 	mov	r9, r4
	volatile int * audio_left = audio_base + 2;
	
	unsigned int fifo_space = *(audio_base + 1);
		
	//check the change in amplitude of the waves
	double amplitude_modulation = pow(volume_sensitivity, ((double) volume) - ((double) default_volume));
     7e4:	eb0014e8 	bl	5b8c <__aeabi_ui2d>
     7e8:	e3a03000 	mov	r3, #0
     7ec:	e3a02000 	mov	r2, #0
     7f0:	e3443014 	movt	r3, #16404	; 0x4014
		
	//check the right and left write availability
	unsigned int num_samples_right = (unsigned int) ((fifo_space >> 16) & 0xFF);
     7f4:	e7e7a85b 	ubfx	r10, r11, #16, #8
	volatile int * audio_left = audio_base + 2;
	
	unsigned int fifo_space = *(audio_base + 1);
		
	//check the change in amplitude of the waves
	double amplitude_modulation = pow(volume_sensitivity, ((double) volume) - ((double) default_volume));
     7f8:	eb00141e 	bl	5878 <__aeabi_dsub>
     7fc:	e1a03001 	mov	r3, r1
     800:	e3a01000 	mov	r1, #0
     804:	e1a02000 	mov	r2, r0
     808:	e3431ff8 	movt	r1, #16376	; 0x3ff8
     80c:	e3a00000 	mov	r0, #0
		
	//check the right and left write availability
	unsigned int num_samples_right = (unsigned int) ((fifo_space >> 16) & 0xFF);
	unsigned int num_samples_left = (unsigned int) ((fifo_space >> 24) & 0xFF);
     810:	e1a0bc2b 	lsr	r11, r11, #24
		
		if(num_samples_right > 0){
			//check for overflow
			double sample_right = get_sample(PLAYBACK_STEREO_R) + sample_mono;
			if(abs(sample_right) > INT_MAX / amplitude_modulation){
				status_flags.volume_clipped = true;
     814:	e3408012 	movt	r8, #18
	volatile int * audio_left = audio_base + 2;
	
	unsigned int fifo_space = *(audio_base + 1);
		
	//check the change in amplitude of the waves
	double amplitude_modulation = pow(volume_sensitivity, ((double) volume) - ((double) default_volume));
     818:	eb000770 	bl	25e0 <pow>
     81c:	e1a06000 	mov	r6, r0
     820:	e1a07001 	mov	r7, r1
		
	//check the right and left write availability
	unsigned int num_samples_right = (unsigned int) ((fifo_space >> 16) & 0xFF);
	unsigned int num_samples_left = (unsigned int) ((fifo_space >> 24) & 0xFF);
	while(num_samples_right > 0 || num_samples_left > 0){
     824:	e19b300a 	orrs	r3, r11, r10
		double sample_mono = get_sample(PLAYBACK_MONO);
     828:	e3a00000 	mov	r0, #0
	double amplitude_modulation = pow(volume_sensitivity, ((double) volume) - ((double) default_volume));
		
	//check the right and left write availability
	unsigned int num_samples_right = (unsigned int) ((fifo_space >> 16) & 0xFF);
	unsigned int num_samples_left = (unsigned int) ((fifo_space >> 24) & 0xFF);
	while(num_samples_right > 0 || num_samples_left > 0){
     82c:	0a000010 	beq	874 <audio_ISR+0xc8>
		double sample_mono = get_sample(PLAYBACK_MONO);
     830:	eb00066a 	bl	21e0 <get_sample>
		
		if(num_samples_right > 0){
     834:	e35a0000 	cmp	r10, #0
		
	//check the right and left write availability
	unsigned int num_samples_right = (unsigned int) ((fifo_space >> 16) & 0xFF);
	unsigned int num_samples_left = (unsigned int) ((fifo_space >> 24) & 0xFF);
	while(num_samples_right > 0 || num_samples_left > 0){
		double sample_mono = get_sample(PLAYBACK_MONO);
     838:	e1a04000 	mov	r4, r0
     83c:	e1a05001 	mov	r5, r1
		
		if(num_samples_right > 0){
     840:	1a00000d 	bne	87c <audio_ISR+0xd0>
			
			//decrement the number of samples required
			num_samples_right--;
		}
		
		if(num_samples_left > 0){
     844:	e35b0000 	cmp	r11, #0
     848:	1a00002d 	bne	904 <audio_ISR+0x158>
			//decrement the number of samples required
			num_samples_left--;
		}
		
		//check if the audio stream is still valid
		if(!is_stream_valid()){
     84c:	eb000555 	bl	1da8 <is_stream_valid>
     850:	e3500000 	cmp	r0, #0
     854:	1afffff2 	bne	824 <audio_ISR+0x78>
			stop_all_audio_playback();
     858:	ebffff38 	bl	540 <stop_all_audio_playback>
			if(is_stream_fully_processed()) {
     85c:	eb000589 	bl	1e88 <is_stream_fully_processed>
     860:	e3500000 	cmp	r0, #0
				status_flags.clear_queue = true;
     864:	13053f60 	movwne	r3, #24416	; 0x5f60
     868:	13a02001 	movne	r2, #1
     86c:	13403012 	movtne	r3, #18
     870:	15c32000 	strbne	r2, [r3]
			}
			break;
		}
	}
     874:	e28dd014 	add	sp, sp, #20
     878:	e8bd8ff0 	pop	{r4, r5, r6, r7, r8, r9, r10, r11, pc}
	while(num_samples_right > 0 || num_samples_left > 0){
		double sample_mono = get_sample(PLAYBACK_MONO);
		
		if(num_samples_right > 0){
			//check for overflow
			double sample_right = get_sample(PLAYBACK_STEREO_R) + sample_mono;
     87c:	e3a00001 	mov	r0, #1
			
			//retrieve and write a sample to the right
			*audio_right = (int) (sample_right * amplitude_modulation);
			
			//decrement the number of samples required
			num_samples_right--;
     880:	e24aa001 	sub	r10, r10, #1
	while(num_samples_right > 0 || num_samples_left > 0){
		double sample_mono = get_sample(PLAYBACK_MONO);
		
		if(num_samples_right > 0){
			//check for overflow
			double sample_right = get_sample(PLAYBACK_STEREO_R) + sample_mono;
     884:	eb000655 	bl	21e0 <get_sample>
     888:	e1a02004 	mov	r2, r4
     88c:	e1a03005 	mov	r3, r5
     890:	eb0013f9 	bl	587c <__adddf3>
     894:	e1cd00f0 	strd	r0, [sp]
			if(abs(sample_right) > INT_MAX / amplitude_modulation){
     898:	eb001673 	bl	626c <__aeabi_d2iz>
     89c:	e3500000 	cmp	r0, #0
     8a0:	b2600000 	rsblt	r0, r0, #0
     8a4:	eb0014c1 	bl	5bb0 <__aeabi_i2d>
     8a8:	e1cd00f8 	strd	r0, [sp, #8]
     8ac:	e3a00000 	mov	r0, #0
     8b0:	e30f1fff 	movw	r1, #65535	; 0xffff
     8b4:	e1a02006 	mov	r2, r6
     8b8:	e1a03007 	mov	r3, r7
     8bc:	e34f0fc0 	movt	r0, #65472	; 0xffc0
     8c0:	e34411df 	movt	r1, #16863	; 0x41df
     8c4:	eb001594 	bl	5f1c <__aeabi_ddiv>
     8c8:	e1a02000 	mov	r2, r0
     8cc:	e1a03001 	mov	r3, r1
     8d0:	e1cd00d8 	ldrd	r0, [sp, #8]
     8d4:	eb00165e 	bl	6254 <__aeabi_dcmpgt>
     8d8:	e3500000 	cmp	r0, #0
				status_flags.volume_clipped = true;
			}
			
			//retrieve and write a sample to the right
			*audio_right = (int) (sample_right * amplitude_modulation);
     8dc:	e1a02006 	mov	r2, r6
		
		if(num_samples_right > 0){
			//check for overflow
			double sample_right = get_sample(PLAYBACK_STEREO_R) + sample_mono;
			if(abs(sample_right) > INT_MAX / amplitude_modulation){
				status_flags.volume_clipped = true;
     8e0:	13a0c001 	movne	r12, #1
			}
			
			//retrieve and write a sample to the right
			*audio_right = (int) (sample_right * amplitude_modulation);
     8e4:	e1a03007 	mov	r3, r7
		
		if(num_samples_right > 0){
			//check for overflow
			double sample_right = get_sample(PLAYBACK_STEREO_R) + sample_mono;
			if(abs(sample_right) > INT_MAX / amplitude_modulation){
				status_flags.volume_clipped = true;
     8e8:	15c8c003 	strbne	r12, [r8, #3]
			}
			
			//retrieve and write a sample to the right
			*audio_right = (int) (sample_right * amplitude_modulation);
     8ec:	e1cd00d0 	ldrd	r0, [sp]
     8f0:	eb0014e5 	bl	5c8c <__aeabi_dmul>
     8f4:	eb00165c 	bl	626c <__aeabi_d2iz>
			
			//decrement the number of samples required
			num_samples_right--;
		}
		
		if(num_samples_left > 0){
     8f8:	e35b0000 	cmp	r11, #0
			if(abs(sample_right) > INT_MAX / amplitude_modulation){
				status_flags.volume_clipped = true;
			}
			
			//retrieve and write a sample to the right
			*audio_right = (int) (sample_right * amplitude_modulation);
     8fc:	e5090fb3 	str	r0, [r9, #-4019]	; 0xfffff04d
			
			//decrement the number of samples required
			num_samples_right--;
		}
		
		if(num_samples_left > 0){
     900:	0affffd1 	beq	84c <audio_ISR+0xa0>
			//check for overflow
			double sample_left = get_sample(PLAYBACK_STEREO_L) + sample_mono;
     904:	e3a00002 	mov	r0, #2
			
			//retrieve and write a sample to the left
			*audio_left = (int) (sample_left * amplitude_modulation);
			
			//decrement the number of samples required
			num_samples_left--;
     908:	e24bb001 	sub	r11, r11, #1
			num_samples_right--;
		}
		
		if(num_samples_left > 0){
			//check for overflow
			double sample_left = get_sample(PLAYBACK_STEREO_L) + sample_mono;
     90c:	eb000633 	bl	21e0 <get_sample>
     910:	e1a02004 	mov	r2, r4
     914:	e1a03005 	mov	r3, r5
     918:	eb0013d7 	bl	587c <__adddf3>
     91c:	e1cd00f0 	strd	r0, [sp]
			if(abs(sample_left) > INT_MAX / amplitude_modulation){
     920:	eb001651 	bl	626c <__aeabi_d2iz>
     924:	e3500000 	cmp	r0, #0
     928:	b2600000 	rsblt	r0, r0, #0
     92c:	eb00149f 	bl	5bb0 <__aeabi_i2d>
     930:	e1a04000 	mov	r4, r0
     934:	e1a05001 	mov	r5, r1
     938:	e3a00000 	mov	r0, #0
     93c:	e30f1fff 	movw	r1, #65535	; 0xffff
     940:	e1a02006 	mov	r2, r6
     944:	e1a03007 	mov	r3, r7
     948:	e34f0fc0 	movt	r0, #65472	; 0xffc0
     94c:	e34411df 	movt	r1, #16863	; 0x41df
     950:	eb001571 	bl	5f1c <__aeabi_ddiv>
     954:	e1a03001 	mov	r3, r1
     958:	e1a01005 	mov	r1, r5
     95c:	e1a02000 	mov	r2, r0
     960:	e1a00004 	mov	r0, r4
     964:	eb00163a 	bl	6254 <__aeabi_dcmpgt>
     968:	e3500000 	cmp	r0, #0
				status_flags.volume_clipped = true;
			}
			
			//retrieve and write a sample to the left
			*audio_left = (int) (sample_left * amplitude_modulation);
     96c:	e1a02006 	mov	r2, r6
		
		if(num_samples_left > 0){
			//check for overflow
			double sample_left = get_sample(PLAYBACK_STEREO_L) + sample_mono;
			if(abs(sample_left) > INT_MAX / amplitude_modulation){
				status_flags.volume_clipped = true;
     970:	13a0c001 	movne	r12, #1
			}
			
			//retrieve and write a sample to the left
			*audio_left = (int) (sample_left * amplitude_modulation);
     974:	e1cd00d0 	ldrd	r0, [sp]
     978:	e1a03007 	mov	r3, r7
		
		if(num_samples_left > 0){
			//check for overflow
			double sample_left = get_sample(PLAYBACK_STEREO_L) + sample_mono;
			if(abs(sample_left) > INT_MAX / amplitude_modulation){
				status_flags.volume_clipped = true;
     97c:	15c8c003 	strbne	r12, [r8, #3]
			}
			
			//retrieve and write a sample to the left
			*audio_left = (int) (sample_left * amplitude_modulation);
     980:	eb0014c1 	bl	5c8c <__aeabi_dmul>
     984:	eb001638 	bl	626c <__aeabi_d2iz>
     988:	e5090fb7 	str	r0, [r9, #-4023]	; 0xfffff049
     98c:	eaffffae 	b	84c <audio_ISR+0xa0>

00000990 <main>:
struct StatusFlags status_flags = {.clear_queue = false, .change_song = false, .is_playing = false, .volume_clipped = false, .frequency_overflow = false};
const unsigned int max_volume = 10, min_volume = 0, default_volume = 5;
const double volume_sensitivity = 1.5;
unsigned int volume = 5;

int main(){
     990:	e92d47f0 	push	{r4, r5, r6, r7, r8, r9, r10, lr}
     994:	e3054f60 	movw	r4, #24416	; 0x5f60
	
	//initialize the music cache
	initialize_cache();
	
	//initialize the audio stream
	audio_stream.current_song = song_list;
     998:	e59fa098 	ldr	r10, [pc, #152]	; a38 <main+0xa8>
     99c:	e3038cac 	movw	r8, #15532	; 0x3cac
     9a0:	e3404012 	movt	r4, #18
		}
		
		//change current song if requested
		if(status_flags.change_song){
			//use the first four switches to pick song
			unsigned int song_offset = (*sw_base) & 0xF;
     9a4:	e3a07000 	mov	r7, #0
	
	//initialize the music cache
	initialize_cache();
	
	//initialize the audio stream
	audio_stream.current_song = song_list;
     9a8:	e3408015 	movt	r8, #21
		//clear the audio_stream if requested
		if(status_flags.clear_queue || status_flags.change_song){
			clear_stream();
			
			//reset the flag so that clearing does not happen again
			status_flags.clear_queue = false;
     9ac:	e1a05007 	mov	r5, r7

int main(){
	volatile int * sw_base = (int*) SW_BASE;
	
	//configure the interrupts and hardware components
	set_A9_IRQ_stack();
     9b0:	eb00002d 	bl	a6c <set_A9_IRQ_stack>
	while(1){
		//continue to populate the audio_stream
		populate_stream();
		
		//clear the audio_stream if requested
		if(status_flags.clear_queue || status_flags.change_song){
     9b4:	e1a06004 	mov	r6, r4
		}
		
		//change current song if requested
		if(status_flags.change_song){
			//use the first four switches to pick song
			unsigned int song_offset = (*sw_base) & 0xF;
     9b8:	e34f7f20 	movt	r7, #65312	; 0xff20
int main(){
	volatile int * sw_base = (int*) SW_BASE;
	
	//configure the interrupts and hardware components
	set_A9_IRQ_stack();
	config_GIC();
     9bc:	eb000038 	bl	aa4 <config_GIC>
	config_audio();
     9c0:	eb00001d 	bl	a3c <config_audio>
	config_keys();
     9c4:	eb000023 	bl	a58 <config_keys>
	
	//initialize the music cache
	initialize_cache();
     9c8:	eb00014a 	bl	ef8 <initialize_cache>
	
	//initialize the audio stream
	audio_stream.current_song = song_list;
     9cc:	e588a014 	str	r10, [r8, #20]
	initialize_stream();
     9d0:	eb000419 	bl	1a3c <initialize_stream>
	
	//enable interrupts once all setup is finished
	enable_A9_interrupts();
     9d4:	eb00002b 	bl	a88 <enable_A9_interrupts>
     9d8:	ea000001 	b	9e4 <main+0x54>
				//re-initializes the stream
				initialize_stream();
			}
			
			//reset the flag so that changing the song does not happen again
			status_flags.change_song = false;
     9dc:	e5c45001 	strb	r5, [r4, #1]
		}
		
		//display status on leds and hexes
		display_status();
     9e0:	ebfffe39 	bl	2cc <display_status>
	enable_A9_interrupts();
	
	//main loop
	while(1){
		//continue to populate the audio_stream
		populate_stream();
     9e4:	eb000450 	bl	1b2c <populate_stream>
		
		//clear the audio_stream if requested
		if(status_flags.clear_queue || status_flags.change_song){
     9e8:	e5d43000 	ldrb	r3, [r4]
     9ec:	e3530000 	cmp	r3, #0
     9f0:	1a000002 	bne	a00 <main+0x70>
     9f4:	e5d63001 	ldrb	r3, [r6, #1]
     9f8:	e3530000 	cmp	r3, #0
     9fc:	0afffff7 	beq	9e0 <main+0x50>
			clear_stream();
     a00:	eb0004b4 	bl	1cd8 <clear_stream>
			//reset the flag so that clearing does not happen again
			status_flags.clear_queue = false;
		}
		
		//change current song if requested
		if(status_flags.change_song){
     a04:	e5d43001 	ldrb	r3, [r4, #1]
		//clear the audio_stream if requested
		if(status_flags.clear_queue || status_flags.change_song){
			clear_stream();
			
			//reset the flag so that clearing does not happen again
			status_flags.clear_queue = false;
     a08:	e5c45000 	strb	r5, [r4]
		}
		
		//change current song if requested
		if(status_flags.change_song){
     a0c:	e3530000 	cmp	r3, #0
     a10:	0afffff2 	beq	9e0 <main+0x50>
			//use the first four switches to pick song
			unsigned int song_offset = (*sw_base) & 0xF;
     a14:	e5979040 	ldr	r9, [r7, #64]	; 0x40
     a18:	e209900f 	and	r9, r9, #15
			
			//check that the song offset is valid
			if(song_offset < NUM_SONGS){
     a1c:	e3590007 	cmp	r9, #7
     a20:	8affffed 	bhi	9dc <main+0x4c>
				//deconstructs the current stream
				deconstruct_stream();
				
				//changes the song based on switches
				audio_stream.current_song = song_list + song_offset;
     a24:	e08a9189 	add	r9, r10, r9, lsl #3
			unsigned int song_offset = (*sw_base) & 0xF;
			
			//check that the song offset is valid
			if(song_offset < NUM_SONGS){
				//deconstructs the current stream
				deconstruct_stream();
     a28:	eb000431 	bl	1af4 <deconstruct_stream>
				
				//changes the song based on switches
				audio_stream.current_song = song_list + song_offset;
     a2c:	e5889014 	str	r9, [r8, #20]
			
				//re-initializes the stream
				initialize_stream();
     a30:	eb000401 	bl	1a3c <initialize_stream>
     a34:	eaffffe8 	b	9dc <main+0x4c>
     a38:	000076a8 	.word	0x000076a8

00000a3c <config_audio>:
void config_audio(){
	volatile int * audio_base = (int*) AUDIO_BASE;
	
	//set the control bits to clear both write and read queue in the audio controller
	int control = 0b1100;
	*audio_base = control;
     a3c:	e3033fff 	movw	r3, #16383	; 0x3fff
     a40:	e3a0200c 	mov	r2, #12
     a44:	e34f3f20 	movt	r3, #65312	; 0xff20
     a48:	e5032fbf 	str	r2, [r3, #-4031]	; 0xfffff041
	
	//unset the control bits to clear and set the correct interrupt bit in the audio controller
	control = 0b0000;
	*audio_base = control;
     a4c:	e3a02000 	mov	r2, #0
     a50:	e5032fbf 	str	r2, [r3, #-4031]	; 0xfffff041
     a54:	e12fff1e 	bx	lr

00000a58 <config_keys>:
void config_keys(){
	volatile int * key_base = (int*) KEY_BASE;
	
	//turn on interrupts for all the keys
	int interrupt_mask = 0b1111;
	*(key_base + 2) = interrupt_mask;
     a58:	e3a03000 	mov	r3, #0
     a5c:	e3a0200f 	mov	r2, #15
     a60:	e34f3f20 	movt	r3, #65312	; 0xff20
     a64:	e5832058 	str	r2, [r3, #88]	; 0x58
     a68:	e12fff1e 	bx	lr

00000a6c <set_A9_IRQ_stack>:

void set_A9_IRQ_stack(){
	register int stack __asm__ ("r2");
	register int mode __asm__ ("r3");
	
	stack = 0xFFFFFFFF - 7; //top of A9 on-chip memory, aligned to 8 bytes
     a6c:	e3e02007 	mvn	r2, #7
	
	/* change processor to IRQ mode with interrupts disabled */
	mode = 0b11010010;
     a70:	e3a030d2 	mov	r3, #210	; 0xd2
	__asm__("msr cpsr, %[ps]" : : [ps] "r" (mode));
     a74:	e129f003 	msr	CPSR_fc, r3
	/* set banked stack pointer */
	__asm__("mov sp, %[ps]" : : [ps] "r" (stack));
     a78:	e1a0d002 	mov	sp, r2
	
	/* go back to SVC mode before executing subroutine return! */
	mode = 0b11010011;
     a7c:	e3a030d3 	mov	r3, #211	; 0xd3
	__asm__("msr cpsr, %[ps]" : : [ps] "r" (mode));
     a80:	e129f003 	msr	CPSR_fc, r3
     a84:	e12fff1e 	bx	lr

00000a88 <enable_A9_interrupts>:
}

void enable_A9_interrupts(){
     a88:	e24dd008 	sub	sp, sp, #8
	volatile int status = 0b01010011;
     a8c:	e3a03053 	mov	r3, #83	; 0x53
     a90:	e58d3004 	str	r3, [sp, #4]
	__asm__("msr cpsr, %[ps]" : : [ps] "r" (status));
     a94:	e59d3004 	ldr	r3, [sp, #4]
     a98:	e129f003 	msr	CPSR_fc, r3
}
     a9c:	e28dd008 	add	sp, sp, #8
     aa0:	e12fff1e 	bx	lr

00000aa4 <config_GIC>:

void config_GIC(){	
     aa4:	e92d0070 	push	{r4, r5, r6}
	volatile int reg_offset, index, value, address;
	
	/* Configure the Interrupt Set-Enable Registers (ICDISERn).
	* reg_offset = (integer_div(N / 32) * 4
	* value = 1 << (N mod 32) */
	reg_offset = (N >> 3) & 0xFFFFFFFC;
     aa8:	e3a00008 	mov	r0, #8
void enable_A9_interrupts(){
	volatile int status = 0b01010011;
	__asm__("msr cpsr, %[ps]" : : [ps] "r" (status));
}

void config_GIC(){	
     aac:	e24dd024 	sub	sp, sp, #36	; 0x24
	
	/* Configure the Interrupt Set-Enable Registers (ICDISERn).
	* reg_offset = (integer_div(N / 32) * 4
	* value = 1 << (N mod 32) */
	reg_offset = (N >> 3) & 0xFFFFFFFC;
	index = N & 0x1F;
     ab0:	e3a02009 	mov	r2, #9
	value = 0x1 << index;
     ab4:	e3a03001 	mov	r3, #1
	
	/* Configure the Interrupt Processor Targets Register (ICDIPTRn)
	* reg_offset = integer_div(N / 4) * 4
	* index = N mod 4 */
	
	reg_offset = (N & 0xFFFFFFFC);
     ab8:	e3a0c048 	mov	r12, #72	; 0x48
	volatile int reg_offset, index, value, address;
	
	/* Configure the Interrupt Set-Enable Registers (ICDISERn).
	* reg_offset = (integer_div(N / 32) * 4
	* value = 1 << (N mod 32) */
	reg_offset = (N >> 3) & 0xFFFFFFFC;
     abc:	e58d0000 	str	r0, [sp]
	index = N & 0x1F;
     ac0:	e58d2004 	str	r2, [sp, #4]
	config_interrupt(KEYS_IRQ, 1);
	config_interrupt(AUDIO_IRQ, 1);

	// Set Interrupt Priority Mask Register (ICCPMR). Enable interrupts of all
	// priorities
	*((int *) MPCORE_GIC_CPUIF + ICCPMR) = 0xFFFF;
     ac4:	e3e02a13 	mvn	r2, #77824	; 0x13000
	/* Configure the Interrupt Set-Enable Registers (ICDISERn).
	* reg_offset = (integer_div(N / 32) * 4
	* value = 1 << (N mod 32) */
	reg_offset = (N >> 3) & 0xFFFFFFFC;
	index = N & 0x1F;
	value = 0x1 << index;
     ac8:	e59d1004 	ldr	r1, [sp, #4]
     acc:	e1a01113 	lsl	r1, r3, r1
     ad0:	e58d1008 	str	r1, [sp, #8]
	address = 0xFFFED100 + reg_offset;
     ad4:	e59d1000 	ldr	r1, [sp]
     ad8:	e2411b4b 	sub	r1, r1, #76800	; 0x12c00
     adc:	e2411c03 	sub	r1, r1, #768	; 0x300
     ae0:	e58d100c 	str	r1, [sp, #12]
	
	/* Now that we know the register address and value, set the appropriate bit */
	*(int *)address |= value;
     ae4:	e59d100c 	ldr	r1, [sp, #12]
     ae8:	e59d4008 	ldr	r4, [sp, #8]
	
	/* Configure the Interrupt Processor Targets Register (ICDIPTRn)
	* reg_offset = integer_div(N / 4) * 4
	* index = N mod 4 */
	
	reg_offset = (N & 0xFFFFFFFC);
     aec:	e58dc000 	str	r12, [sp]
	index = N & 0x3;
     af0:	e58d3004 	str	r3, [sp, #4]
	address = 0xFFFED800 + reg_offset + index;
     af4:	e59d6000 	ldr	r6, [sp]
     af8:	e59dc004 	ldr	r12, [sp, #4]
	index = N & 0x1F;
	value = 0x1 << index;
	address = 0xFFFED100 + reg_offset;
	
	/* Now that we know the register address and value, set the appropriate bit */
	*(int *)address |= value;
     afc:	e5915000 	ldr	r5, [r1]
	* reg_offset = integer_div(N / 4) * 4
	* index = N mod 4 */
	
	reg_offset = (N & 0xFFFFFFFC);
	index = N & 0x3;
	address = 0xFFFED800 + reg_offset + index;
     b00:	e086c00c 	add	r12, r6, r12
     b04:	e24ccb4a 	sub	r12, r12, #75776	; 0x12800
	index = N & 0x1F;
	value = 0x1 << index;
	address = 0xFFFED100 + reg_offset;
	
	/* Now that we know the register address and value, set the appropriate bit */
	*(int *)address |= value;
     b08:	e1854004 	orr	r4, r5, r4
	* reg_offset = integer_div(N / 4) * 4
	* index = N mod 4 */
	
	reg_offset = (N & 0xFFFFFFFC);
	index = N & 0x3;
	address = 0xFFFED800 + reg_offset + index;
     b0c:	e58dc00c 	str	r12, [sp, #12]
	/* Now that we know the register address and value, write to (only) the
	* appropriate byte */
	*(char *)address = (char)CPU_target;
     b10:	e59dc00c 	ldr	r12, [sp, #12]
	volatile int reg_offset, index, value, address;
	
	/* Configure the Interrupt Set-Enable Registers (ICDISERn).
	* reg_offset = (integer_div(N / 32) * 4
	* value = 1 << (N mod 32) */
	reg_offset = (N >> 3) & 0xFFFFFFFC;
     b14:	e58d0010 	str	r0, [sp, #16]
	index = N & 0x1F;
     b18:	e3a0000e 	mov	r0, #14
     b1c:	e58d0014 	str	r0, [sp, #20]
	value = 0x1 << index;
     b20:	e59d0014 	ldr	r0, [sp, #20]
	address = 0xFFFED100 + reg_offset;
	
	/* Now that we know the register address and value, set the appropriate bit */
	*(int *)address |= value;
     b24:	e5814000 	str	r4, [r1]
	reg_offset = (N & 0xFFFFFFFC);
	index = N & 0x3;
	address = 0xFFFED800 + reg_offset + index;
	/* Now that we know the register address and value, write to (only) the
	* appropriate byte */
	*(char *)address = (char)CPU_target;
     b28:	e5cc3000 	strb	r3, [r12]
	/* Configure the Interrupt Set-Enable Registers (ICDISERn).
	* reg_offset = (integer_div(N / 32) * 4
	* value = 1 << (N mod 32) */
	reg_offset = (N >> 3) & 0xFFFFFFFC;
	index = N & 0x1F;
	value = 0x1 << index;
     b2c:	e1a01013 	lsl	r1, r3, r0
	
	/* Configure the Interrupt Processor Targets Register (ICDIPTRn)
	* reg_offset = integer_div(N / 4) * 4
	* index = N mod 4 */
	
	reg_offset = (N & 0xFFFFFFFC);
     b30:	e3a0004c 	mov	r0, #76	; 0x4c
	/* Configure the Interrupt Set-Enable Registers (ICDISERn).
	* reg_offset = (integer_div(N / 32) * 4
	* value = 1 << (N mod 32) */
	reg_offset = (N >> 3) & 0xFFFFFFFC;
	index = N & 0x1F;
	value = 0x1 << index;
     b34:	e58d1018 	str	r1, [sp, #24]
	address = 0xFFFED100 + reg_offset;
     b38:	e59d1010 	ldr	r1, [sp, #16]
     b3c:	e2411b4b 	sub	r1, r1, #76800	; 0x12c00
     b40:	e2411c03 	sub	r1, r1, #768	; 0x300
     b44:	e58d101c 	str	r1, [sp, #28]
	
	/* Now that we know the register address and value, set the appropriate bit */
	*(int *)address |= value;
     b48:	e59d101c 	ldr	r1, [sp, #28]
     b4c:	e59dc018 	ldr	r12, [sp, #24]
	
	/* Configure the Interrupt Processor Targets Register (ICDIPTRn)
	* reg_offset = integer_div(N / 4) * 4
	* index = N mod 4 */
	
	reg_offset = (N & 0xFFFFFFFC);
     b50:	e58d0010 	str	r0, [sp, #16]
	index = N & 0x3;
     b54:	e3a00002 	mov	r0, #2
     b58:	e58d0014 	str	r0, [sp, #20]
	address = 0xFFFED800 + reg_offset + index;
     b5c:	e59d5010 	ldr	r5, [sp, #16]
     b60:	e59d0014 	ldr	r0, [sp, #20]
	index = N & 0x1F;
	value = 0x1 << index;
	address = 0xFFFED100 + reg_offset;
	
	/* Now that we know the register address and value, set the appropriate bit */
	*(int *)address |= value;
     b64:	e5914000 	ldr	r4, [r1]
	* reg_offset = integer_div(N / 4) * 4
	* index = N mod 4 */
	
	reg_offset = (N & 0xFFFFFFFC);
	index = N & 0x3;
	address = 0xFFFED800 + reg_offset + index;
     b68:	e0850000 	add	r0, r5, r0
     b6c:	e2400b4a 	sub	r0, r0, #75776	; 0x12800
	index = N & 0x1F;
	value = 0x1 << index;
	address = 0xFFFED100 + reg_offset;
	
	/* Now that we know the register address and value, set the appropriate bit */
	*(int *)address |= value;
     b70:	e184c00c 	orr	r12, r4, r12
	* reg_offset = integer_div(N / 4) * 4
	* index = N mod 4 */
	
	reg_offset = (N & 0xFFFFFFFC);
	index = N & 0x3;
	address = 0xFFFED800 + reg_offset + index;
     b74:	e58d001c 	str	r0, [sp, #28]
	/* Now that we know the register address and value, write to (only) the
	* appropriate byte */
	*(char *)address = (char)CPU_target;
     b78:	e59d001c 	ldr	r0, [sp, #28]
	index = N & 0x1F;
	value = 0x1 << index;
	address = 0xFFFED100 + reg_offset;
	
	/* Now that we know the register address and value, set the appropriate bit */
	*(int *)address |= value;
     b7c:	e581c000 	str	r12, [r1]
	config_interrupt(KEYS_IRQ, 1);
	config_interrupt(AUDIO_IRQ, 1);

	// Set Interrupt Priority Mask Register (ICCPMR). Enable interrupts of all
	// priorities
	*((int *) MPCORE_GIC_CPUIF + ICCPMR) = 0xFFFF;
     b80:	e30f1fff 	movw	r1, #65535	; 0xffff
	reg_offset = (N & 0xFFFFFFFC);
	index = N & 0x3;
	address = 0xFFFED800 + reg_offset + index;
	/* Now that we know the register address and value, write to (only) the
	* appropriate byte */
	*(char *)address = (char)CPU_target;
     b84:	e5c03000 	strb	r3, [r0]
	config_interrupt(KEYS_IRQ, 1);
	config_interrupt(AUDIO_IRQ, 1);

	// Set Interrupt Priority Mask Register (ICCPMR). Enable interrupts of all
	// priorities
	*((int *) MPCORE_GIC_CPUIF + ICCPMR) = 0xFFFF;
     b88:	e5021eef 	str	r1, [r2, #-3823]	; 0xfffff111
	
	// Set CPU Interface Control Register (ICCICR). Enable signaling of
	// interrupts
	*((int *) MPCORE_GIC_CPUIF + ICCICR) = 1;
     b8c:	e5023eff 	str	r3, [r2, #-3839]	; 0xfffff101
	
	// Configure the Distributor Control Register (ICDDCR) to send pending
	// interrupts to CPUs
	*((int *) MPCORE_GIC_DIST + ICDDCR) = 1;
     b90:	e3e02a12 	mvn	r2, #73728	; 0x12000
     b94:	e5023fff 	str	r3, [r2, #-4095]	; 0xfffff001
}
     b98:	e28dd024 	add	sp, sp, #36	; 0x24
     b9c:	e8bd0070 	pop	{r4, r5, r6}
     ba0:	e12fff1e 	bx	lr

00000ba4 <config_interrupt>:
	volatile int reg_offset, index, value, address;
	
	/* Configure the Interrupt Set-Enable Registers (ICDISERn).
	* reg_offset = (integer_div(N / 32) * 4
	* value = 1 << (N mod 32) */
	reg_offset = (N >> 3) & 0xFFFFFFFC;
     ba4:	e1a0c1c0 	asr	r12, r0, #3
	// Configure the Distributor Control Register (ICDDCR) to send pending
	// interrupts to CPUs
	*((int *) MPCORE_GIC_DIST + ICDDCR) = 1;
}

void config_interrupt(int N, int CPU_target){
     ba8:	e52d4004 	push	{r4}		; (str r4, [sp, #-4]!)
	
	/* Configure the Interrupt Set-Enable Registers (ICDISERn).
	* reg_offset = (integer_div(N / 32) * 4
	* value = 1 << (N mod 32) */
	reg_offset = (N >> 3) & 0xFFFFFFFC;
	index = N & 0x1F;
     bac:	e200301f 	and	r3, r0, #31
	// Configure the Distributor Control Register (ICDDCR) to send pending
	// interrupts to CPUs
	*((int *) MPCORE_GIC_DIST + ICDDCR) = 1;
}

void config_interrupt(int N, int CPU_target){
     bb0:	e24dd014 	sub	sp, sp, #20
	volatile int reg_offset, index, value, address;
	
	/* Configure the Interrupt Set-Enable Registers (ICDISERn).
	* reg_offset = (integer_div(N / 32) * 4
	* value = 1 << (N mod 32) */
	reg_offset = (N >> 3) & 0xFFFFFFFC;
     bb4:	e3ccc003 	bic	r12, r12, #3
     bb8:	e58dc000 	str	r12, [sp]
	index = N & 0x1F;
	value = 0x1 << index;
     bbc:	e3a0c001 	mov	r12, #1
	
	/* Configure the Interrupt Set-Enable Registers (ICDISERn).
	* reg_offset = (integer_div(N / 32) * 4
	* value = 1 << (N mod 32) */
	reg_offset = (N >> 3) & 0xFFFFFFFC;
	index = N & 0x1F;
     bc0:	e58d3004 	str	r3, [sp, #4]
	
	/* Configure the Interrupt Processor Targets Register (ICDIPTRn)
	* reg_offset = integer_div(N / 4) * 4
	* index = N mod 4 */
	
	reg_offset = (N & 0xFFFFFFFC);
     bc4:	e3c02003 	bic	r2, r0, #3
	/* Configure the Interrupt Set-Enable Registers (ICDISERn).
	* reg_offset = (integer_div(N / 32) * 4
	* value = 1 << (N mod 32) */
	reg_offset = (N >> 3) & 0xFFFFFFFC;
	index = N & 0x1F;
	value = 0x1 << index;
     bc8:	e59d3004 	ldr	r3, [sp, #4]
	/* Configure the Interrupt Processor Targets Register (ICDIPTRn)
	* reg_offset = integer_div(N / 4) * 4
	* index = N mod 4 */
	
	reg_offset = (N & 0xFFFFFFFC);
	index = N & 0x3;
     bcc:	e2000003 	and	r0, r0, #3
	/* Configure the Interrupt Set-Enable Registers (ICDISERn).
	* reg_offset = (integer_div(N / 32) * 4
	* value = 1 << (N mod 32) */
	reg_offset = (N >> 3) & 0xFFFFFFFC;
	index = N & 0x1F;
	value = 0x1 << index;
     bd0:	e1a0331c 	lsl	r3, r12, r3
     bd4:	e58d3008 	str	r3, [sp, #8]
	address = 0xFFFED100 + reg_offset;
     bd8:	e59d3000 	ldr	r3, [sp]
     bdc:	e2433b4b 	sub	r3, r3, #76800	; 0x12c00
     be0:	e2433c03 	sub	r3, r3, #768	; 0x300
     be4:	e58d300c 	str	r3, [sp, #12]
	
	/* Now that we know the register address and value, set the appropriate bit */
	*(int *)address |= value;
     be8:	e59d300c 	ldr	r3, [sp, #12]
     bec:	e59dc008 	ldr	r12, [sp, #8]
	
	/* Configure the Interrupt Processor Targets Register (ICDIPTRn)
	* reg_offset = integer_div(N / 4) * 4
	* index = N mod 4 */
	
	reg_offset = (N & 0xFFFFFFFC);
     bf0:	e58d2000 	str	r2, [sp]
	index = N & 0x3;
     bf4:	e58d0004 	str	r0, [sp, #4]
	address = 0xFFFED800 + reg_offset + index;
     bf8:	e59d4000 	ldr	r4, [sp]
     bfc:	e59d2004 	ldr	r2, [sp, #4]
	index = N & 0x1F;
	value = 0x1 << index;
	address = 0xFFFED100 + reg_offset;
	
	/* Now that we know the register address and value, set the appropriate bit */
	*(int *)address |= value;
     c00:	e5930000 	ldr	r0, [r3]
	* reg_offset = integer_div(N / 4) * 4
	* index = N mod 4 */
	
	reg_offset = (N & 0xFFFFFFFC);
	index = N & 0x3;
	address = 0xFFFED800 + reg_offset + index;
     c04:	e0842002 	add	r2, r4, r2
     c08:	e2422b4a 	sub	r2, r2, #75776	; 0x12800
	index = N & 0x1F;
	value = 0x1 << index;
	address = 0xFFFED100 + reg_offset;
	
	/* Now that we know the register address and value, set the appropriate bit */
	*(int *)address |= value;
     c0c:	e180000c 	orr	r0, r0, r12
	* reg_offset = integer_div(N / 4) * 4
	* index = N mod 4 */
	
	reg_offset = (N & 0xFFFFFFFC);
	index = N & 0x3;
	address = 0xFFFED800 + reg_offset + index;
     c10:	e58d200c 	str	r2, [sp, #12]
	/* Now that we know the register address and value, write to (only) the
	* appropriate byte */
	*(char *)address = (char)CPU_target;
     c14:	e59d200c 	ldr	r2, [sp, #12]
	index = N & 0x1F;
	value = 0x1 << index;
	address = 0xFFFED100 + reg_offset;
	
	/* Now that we know the register address and value, set the appropriate bit */
	*(int *)address |= value;
     c18:	e5830000 	str	r0, [r3]
	reg_offset = (N & 0xFFFFFFFC);
	index = N & 0x3;
	address = 0xFFFED800 + reg_offset + index;
	/* Now that we know the register address and value, write to (only) the
	* appropriate byte */
	*(char *)address = (char)CPU_target;
     c1c:	e5c21000 	strb	r1, [r2]
}
     c20:	e28dd014 	add	sp, sp, #20
     c24:	e8bd0010 	ldmfd	sp!, {r4}
     c28:	e12fff1e 	bx	lr

00000c2c <__cs3_isr_irq>:
#include "interrupt_ID.h"
#include "address_map_arm.h"
#include "exceptions.h"

// Define the IRQ exception handler
void __attribute__((interrupt)) __cs3_isr_irq(){
     c2c:	e24ee004 	sub	lr, lr, #4
     c30:	e92d500f 	push	{r0, r1, r2, r3, r12, lr}
	// Read the ICCIAR from the processor interface
	volatile int address = MPCORE_GIC_CPUIF + ICCIAR;
     c34:	e30c310c 	movw	r3, #49420	; 0xc10c
#include "interrupt_ID.h"
#include "address_map_arm.h"
#include "exceptions.h"

// Define the IRQ exception handler
void __attribute__((interrupt)) __cs3_isr_irq(){
     c38:	e24dd008 	sub	sp, sp, #8
	// Read the ICCIAR from the processor interface
	volatile int address = MPCORE_GIC_CPUIF + ICCIAR;
     c3c:	e34f3ffe 	movt	r3, #65534	; 0xfffe
     c40:	e58d3000 	str	r3, [sp]
	volatile int int_ID = *((int *)address);
     c44:	e59d3000 	ldr	r3, [sp]
     c48:	e5933000 	ldr	r3, [r3]
     c4c:	e58d3004 	str	r3, [sp, #4]
	
	if (int_ID == KEYS_IRQ)
     c50:	e59d3004 	ldr	r3, [sp, #4]
     c54:	e3530049 	cmp	r3, #73	; 0x49
     c58:	0a000009 	beq	c84 <__cs3_isr_irq+0x58>
		keys_ISR();
	else if(int_ID == AUDIO_IRQ)
     c5c:	e59d3004 	ldr	r3, [sp, #4]
     c60:	e353004e 	cmp	r3, #78	; 0x4e
     c64:	0a000000 	beq	c6c <__cs3_isr_irq+0x40>
     c68:	eafffffe 	b	c68 <__cs3_isr_irq+0x3c>
		audio_ISR();
     c6c:	ebfffece 	bl	7ac <audio_ISR>
	else
		while (1);
	
	//clear the interrupt id from the GIC
	*((int *) (MPCORE_GIC_CPUIF + ICCEOIR)) = int_ID;
     c70:	e59d2004 	ldr	r2, [sp, #4]
     c74:	e3e03a13 	mvn	r3, #77824	; 0x13000
     c78:	e5032eef 	str	r2, [r3, #-3823]	; 0xfffff111
}
     c7c:	e28dd008 	add	sp, sp, #8
     c80:	e8fd900f 	ldm	sp!, {r0, r1, r2, r3, r12, pc}^
	// Read the ICCIAR from the processor interface
	volatile int address = MPCORE_GIC_CPUIF + ICCIAR;
	volatile int int_ID = *((int *)address);
	
	if (int_ID == KEYS_IRQ)
		keys_ISR();
     c84:	ebfffe67 	bl	628 <keys_ISR>
     c88:	eafffff8 	b	c70 <__cs3_isr_irq+0x44>

00000c8c <__cs3_reset>:
	//clear the interrupt id from the GIC
	*((int *) (MPCORE_GIC_CPUIF + ICCEOIR)) = int_ID;
}

// Define the remaining exception handlers
void __attribute__((interrupt)) __cs3_reset(){
     c8c:	eafffffe 	b	c8c <__cs3_reset>

00000c90 <__cs3_isr_undef>:
	while (1);
}

void __attribute__((interrupt)) __cs3_isr_undef(){
     c90:	eafffffe 	b	c90 <__cs3_isr_undef>

00000c94 <__cs3_isr_swi>:
	while (1);
}

void __attribute__((interrupt)) __cs3_isr_swi(){
     c94:	eafffffe 	b	c94 <__cs3_isr_swi>

00000c98 <__cs3_isr_pabort>:
	while (1);
}

void __attribute__((interrupt)) __cs3_isr_pabort(){
     c98:	eafffffe 	b	c98 <__cs3_isr_pabort>

00000c9c <__cs3_isr_dabort>:
	while (1);
}

void __attribute__((interrupt)) __cs3_isr_dabort(){
     c9c:	eafffffe 	b	c9c <__cs3_isr_dabort>

00000ca0 <__cs3_isr_fiq>:
	while (1);
}

void __attribute__((interrupt)) __cs3_isr_fiq(){
     ca0:	eafffffe 	b	ca0 <__cs3_isr_fiq>

00000ca4 <get_num>:
	
	return change_in_freq * middle_A_freq;
}

//returns the key number requested of the note and octave given
int get_num(char * note, int octave){	
     ca4:	e92d4038 	push	{r3, r4, r5, lr}
     ca8:	e1a04001 	mov	r4, r1
	int number;
	if(!strcmp(note, "C")){
     cac:	e3071720 	movw	r1, #30496	; 0x7720
	
	return change_in_freq * middle_A_freq;
}

//returns the key number requested of the note and octave given
int get_num(char * note, int octave){	
     cb0:	e1a05000 	mov	r5, r0
	int number;
	if(!strcmp(note, "C")){
     cb4:	e3401000 	movt	r1, #0
     cb8:	eb001799 	bl	6b24 <strcmp>
     cbc:	e3500000 	cmp	r0, #0
     cc0:	0a000061 	beq	e4c <get_num+0x1a8>
		number = 0;
	} else if(!strcmp(note, "Cs") || !strcmp(note, "Db")){
     cc4:	e3071704 	movw	r1, #30468	; 0x7704
     cc8:	e1a00005 	mov	r0, r5
     ccc:	e3401000 	movt	r1, #0
     cd0:	eb001793 	bl	6b24 <strcmp>
     cd4:	e3500000 	cmp	r0, #0
     cd8:	0a00005e 	beq	e58 <get_num+0x1b4>
     cdc:	e3071768 	movw	r1, #30568	; 0x7768
     ce0:	e1a00005 	mov	r0, r5
     ce4:	e3401000 	movt	r1, #0
     ce8:	eb00178d 	bl	6b24 <strcmp>
     cec:	e3500000 	cmp	r0, #0
     cf0:	0a000058 	beq	e58 <get_num+0x1b4>
		number = 1;
	} else if(!strcmp(note, "D")){
     cf4:	e3071724 	movw	r1, #30500	; 0x7724
     cf8:	e1a00005 	mov	r0, r5
     cfc:	e3401000 	movt	r1, #0
     d00:	eb001787 	bl	6b24 <strcmp>
     d04:	e3500000 	cmp	r0, #0
     d08:	0a000054 	beq	e60 <get_num+0x1bc>
		number = 2;
	} else if(!strcmp(note, "Ds") || !strcmp(note, "Eb")){
     d0c:	e3071714 	movw	r1, #30484	; 0x7714
     d10:	e1a00005 	mov	r0, r5
     d14:	e3401000 	movt	r1, #0
     d18:	eb001781 	bl	6b24 <strcmp>
     d1c:	e3500000 	cmp	r0, #0
     d20:	0a000050 	beq	e68 <get_num+0x1c4>
     d24:	e307176c 	movw	r1, #30572	; 0x776c
     d28:	e1a00005 	mov	r0, r5
     d2c:	e3401000 	movt	r1, #0
     d30:	eb00177b 	bl	6b24 <strcmp>
     d34:	e3500000 	cmp	r0, #0
     d38:	0a00004a 	beq	e68 <get_num+0x1c4>
		number = 3;
	} else if(!strcmp(note, "E")){
     d3c:	e3071708 	movw	r1, #30472	; 0x7708
     d40:	e1a00005 	mov	r0, r5
     d44:	e3401000 	movt	r1, #0
     d48:	eb001775 	bl	6b24 <strcmp>
     d4c:	e3500000 	cmp	r0, #0
     d50:	0a000046 	beq	e70 <get_num+0x1cc>
		number = 4;
	} else if(!strcmp(note, "F")){
     d54:	e3071728 	movw	r1, #30504	; 0x7728
     d58:	e1a00005 	mov	r0, r5
     d5c:	e3401000 	movt	r1, #0
     d60:	eb00176f 	bl	6b24 <strcmp>
     d64:	e3500000 	cmp	r0, #0
     d68:	0a000044 	beq	e80 <get_num+0x1dc>
		number = 5;
	} else if(!strcmp(note, "Fs") || !strcmp(note, "Gb")){
     d6c:	e3071718 	movw	r1, #30488	; 0x7718
     d70:	e1a00005 	mov	r0, r5
     d74:	e3401000 	movt	r1, #0
     d78:	eb001769 	bl	6b24 <strcmp>
     d7c:	e3500000 	cmp	r0, #0
     d80:	0a000040 	beq	e88 <get_num+0x1e4>
     d84:	e3071770 	movw	r1, #30576	; 0x7770
     d88:	e1a00005 	mov	r0, r5
     d8c:	e3401000 	movt	r1, #0
     d90:	eb001763 	bl	6b24 <strcmp>
     d94:	e3500000 	cmp	r0, #0
     d98:	0a00003a 	beq	e88 <get_num+0x1e4>
		number = 6;
	} else if(!strcmp(note, "G")){
     d9c:	e307171c 	movw	r1, #30492	; 0x771c
     da0:	e1a00005 	mov	r0, r5
     da4:	e3401000 	movt	r1, #0
     da8:	eb00175d 	bl	6b24 <strcmp>
     dac:	e3500000 	cmp	r0, #0
     db0:	0a000036 	beq	e90 <get_num+0x1ec>
		number = 7;
	} else if(!strcmp(note, "Gs") || !strcmp(note, "Ab")){
     db4:	e3071730 	movw	r1, #30512	; 0x7730
     db8:	e1a00005 	mov	r0, r5
     dbc:	e3401000 	movt	r1, #0
     dc0:	eb001757 	bl	6b24 <strcmp>
     dc4:	e3500000 	cmp	r0, #0
     dc8:	0a00001e 	beq	e48 <get_num+0x1a4>
     dcc:	e3071774 	movw	r1, #30580	; 0x7774
     dd0:	e1a00005 	mov	r0, r5
     dd4:	e3401000 	movt	r1, #0
     dd8:	eb001751 	bl	6b24 <strcmp>
     ddc:	e3500000 	cmp	r0, #0
     de0:	0a000018 	beq	e48 <get_num+0x1a4>
		number = 8;
	} else if(!strcmp(note, "A")){
     de4:	e3071700 	movw	r1, #30464	; 0x7700
     de8:	e1a00005 	mov	r0, r5
     dec:	e3401000 	movt	r1, #0
     df0:	eb00174b 	bl	6b24 <strcmp>
     df4:	e3500000 	cmp	r0, #0
     df8:	0a000028 	beq	ea0 <get_num+0x1fc>
		number = 9;
	} else if(!strcmp(note, "As") || !strcmp(note, "Bb")){
     dfc:	e307172c 	movw	r1, #30508	; 0x772c
     e00:	e1a00005 	mov	r0, r5
     e04:	e3401000 	movt	r1, #0
     e08:	eb001745 	bl	6b24 <strcmp>
     e0c:	e3500000 	cmp	r0, #0
     e10:	0a000020 	beq	e98 <get_num+0x1f4>
     e14:	e3071778 	movw	r1, #30584	; 0x7778
     e18:	e1a00005 	mov	r0, r5
     e1c:	e3401000 	movt	r1, #0
     e20:	eb00173f 	bl	6b24 <strcmp>
     e24:	e3500000 	cmp	r0, #0
     e28:	0a00001a 	beq	e98 <get_num+0x1f4>
		number = 10;
	} else if(!strcmp(note, "B")){
     e2c:	e3071710 	movw	r1, #30480	; 0x7710
     e30:	e1a00005 	mov	r0, r5
     e34:	e3401000 	movt	r1, #0
     e38:	eb001739 	bl	6b24 <strcmp>
     e3c:	e3500000 	cmp	r0, #0
     e40:	0a00000c 	beq	e78 <get_num+0x1d4>
     e44:	eafffffe 	b	e44 <get_num+0x1a0>
	} else if(!strcmp(note, "Fs") || !strcmp(note, "Gb")){
		number = 6;
	} else if(!strcmp(note, "G")){
		number = 7;
	} else if(!strcmp(note, "Gs") || !strcmp(note, "Ab")){
		number = 8;
     e48:	e3a00008 	mov	r0, #8
		number = 11;
	} else {
		while (1);
	}
	
	return number + (octave * 12);
     e4c:	e0844084 	add	r4, r4, r4, lsl #1
}
     e50:	e0800104 	add	r0, r0, r4, lsl #2
     e54:	e8bd8038 	pop	{r3, r4, r5, pc}
int get_num(char * note, int octave){	
	int number;
	if(!strcmp(note, "C")){
		number = 0;
	} else if(!strcmp(note, "Cs") || !strcmp(note, "Db")){
		number = 1;
     e58:	e3a00001 	mov	r0, #1
     e5c:	eafffffa 	b	e4c <get_num+0x1a8>
	} else if(!strcmp(note, "D")){
		number = 2;
     e60:	e3a00002 	mov	r0, #2
     e64:	eafffff8 	b	e4c <get_num+0x1a8>
	} else if(!strcmp(note, "Ds") || !strcmp(note, "Eb")){
		number = 3;
     e68:	e3a00003 	mov	r0, #3
     e6c:	eafffff6 	b	e4c <get_num+0x1a8>
	} else if(!strcmp(note, "E")){
		number = 4;
     e70:	e3a00004 	mov	r0, #4
     e74:	eafffff4 	b	e4c <get_num+0x1a8>
	} else if(!strcmp(note, "A")){
		number = 9;
	} else if(!strcmp(note, "As") || !strcmp(note, "Bb")){
		number = 10;
	} else if(!strcmp(note, "B")){
		number = 11;
     e78:	e3a0000b 	mov	r0, #11
     e7c:	eafffff2 	b	e4c <get_num+0x1a8>
	} else if(!strcmp(note, "Ds") || !strcmp(note, "Eb")){
		number = 3;
	} else if(!strcmp(note, "E")){
		number = 4;
	} else if(!strcmp(note, "F")){
		number = 5;
     e80:	e3a00005 	mov	r0, #5
     e84:	eafffff0 	b	e4c <get_num+0x1a8>
	} else if(!strcmp(note, "Fs") || !strcmp(note, "Gb")){
		number = 6;
     e88:	e3a00006 	mov	r0, #6
     e8c:	eaffffee 	b	e4c <get_num+0x1a8>
	} else if(!strcmp(note, "G")){
		number = 7;
     e90:	e3a00007 	mov	r0, #7
     e94:	eaffffec 	b	e4c <get_num+0x1a8>
	} else if(!strcmp(note, "Gs") || !strcmp(note, "Ab")){
		number = 8;
	} else if(!strcmp(note, "A")){
		number = 9;
	} else if(!strcmp(note, "As") || !strcmp(note, "Bb")){
		number = 10;
     e98:	e3a0000a 	mov	r0, #10
     e9c:	eaffffea 	b	e4c <get_num+0x1a8>
	} else if(!strcmp(note, "G")){
		number = 7;
	} else if(!strcmp(note, "Gs") || !strcmp(note, "Ab")){
		number = 8;
	} else if(!strcmp(note, "A")){
		number = 9;
     ea0:	e3a00009 	mov	r0, #9
     ea4:	eaffffe8 	b	e4c <get_num+0x1a8>

00000ea8 <get_frequency>:
struct MusicCache music_cache;

extern struct StatusFlags status_flags;

//returns the frequency requested of the key number given
double get_frequency(int key_number){
     ea8:	e92d4010 	push	{r4, lr}
     eac:	e1a04000 	mov	r4, r0
	const double middle_A_freq = 440; //Hz
	const int middle_A_num = get_num("A", 4); //number pertaining to the middle A
     eb0:	e3070700 	movw	r0, #30464	; 0x7700
     eb4:	e3a01004 	mov	r1, #4
     eb8:	e3400000 	movt	r0, #0
     ebc:	ebffff78 	bl	ca4 <get_num>
	
	const double semitone_mult = pow(2, (1.0/12.0)); //change in frequency when going up or down one key
	double semitone_jump = key_number - middle_A_num; //number of jumps from key requested to middle A
     ec0:	e0600004 	rsb	r0, r0, r4
     ec4:	eb001339 	bl	5bb0 <__aeabi_i2d>
     ec8:	e1a02000 	mov	r2, r0
     ecc:	e1a03001 	mov	r3, r1
	
	double change_in_freq = pow(semitone_mult, semitone_jump);
     ed0:	e3070963 	movw	r0, #31075	; 0x7963
     ed4:	e30f138f 	movw	r1, #62351	; 0xf38f
     ed8:	e34902d9 	movt	r0, #37593	; 0x92d9
     edc:	e3431ff0 	movt	r1, #16368	; 0x3ff0
     ee0:	eb0005be 	bl	25e0 <pow>
	
	return change_in_freq * middle_A_freq;
     ee4:	e3a03902 	mov	r3, #32768	; 0x8000
     ee8:	e3a02000 	mov	r2, #0
     eec:	e344307b 	movt	r3, #16507	; 0x407b
     ef0:	eb001365 	bl	5c8c <__aeabi_dmul>
}
     ef4:	e8bd8010 	pop	{r4, pc}

00000ef8 <initialize_cache>:
	struct MusicWave wave = {.waveform = wave_array, .length = number_of_samples};
	return wave;
}

//initializes the music cache
void initialize_cache(){
     ef8:	e92d4008 	push	{r3, lr}
	//allocate space for all lines 0-127
	music_cache.cache_lines = malloc(sizeof(struct CacheWave) * 128);
     efc:	e3a00c06 	mov	r0, #1536	; 0x600
     f00:	eb00151e 	bl	6380 <malloc>
     f04:	e303cca8 	movw	r12, #15528	; 0x3ca8
	struct MusicWave wave = {.waveform = wave_array, .length = number_of_samples};
	return wave;
}

//initializes the music cache
void initialize_cache(){
     f08:	e2803008 	add	r3, r0, #8
     f0c:	e3a01080 	mov	r1, #128	; 0x80
	//allocate space for all lines 0-127
	music_cache.cache_lines = malloc(sizeof(struct CacheWave) * 128);
	
	for(unsigned int i = 0; i < 128; i++){
		//initialize all variables in the line
		music_cache.cache_lines[i].waveform = NULL;
     f10:	e3a02000 	mov	r2, #0
}

//initializes the music cache
void initialize_cache(){
	//allocate space for all lines 0-127
	music_cache.cache_lines = malloc(sizeof(struct CacheWave) * 128);
     f14:	e340c015 	movt	r12, #21
     f18:	e58c0000 	str	r0, [r12]
	
	for(unsigned int i = 0; i < 128; i++){
     f1c:	e2511001 	subs	r1, r1, #1
		//initialize all variables in the line
		music_cache.cache_lines[i].waveform = NULL;
     f20:	e5032008 	str	r2, [r3, #-8]
		music_cache.cache_lines[i].allocated_length = 0;
     f24:	e5032004 	str	r2, [r3, #-4]
		music_cache.cache_lines[i].used_length = 0;
     f28:	e483200c 	str	r2, [r3], #12
//initializes the music cache
void initialize_cache(){
	//allocate space for all lines 0-127
	music_cache.cache_lines = malloc(sizeof(struct CacheWave) * 128);
	
	for(unsigned int i = 0; i < 128; i++){
     f2c:	1afffffa 	bne	f1c <initialize_cache+0x24>
		//initialize all variables in the line
		music_cache.cache_lines[i].waveform = NULL;
		music_cache.cache_lines[i].allocated_length = 0;
		music_cache.cache_lines[i].used_length = 0;
	}
}
     f30:	e8bd8008 	pop	{r3, pc}

00000f34 <expand_cache_line>:

//expands the given line
void expand_cache_line(struct CacheWave * cache_line){
     f34:	e92d45f8 	push	{r3, r4, r5, r6, r7, r8, r10, lr}
     f38:	e1a07000 	mov	r7, r0
	//allocate space for the new array
	unsigned int new_length	= (cache_line->allocated_length << 1) | 0b1;
     f3c:	e5904004 	ldr	r4, [r0, #4]
     f40:	e1a04084 	lsl	r4, r4, #1
     f44:	e3844001 	orr	r4, r4, #1
	double * new_array = malloc(sizeof(double) * new_length);
     f48:	e1a00184 	lsl	r0, r4, #3
     f4c:	eb00150b 	bl	6380 <malloc>
	
	//copy over all used samples in the array
	for(unsigned int i = 0; i < cache_line->used_length; i++){
     f50:	e5976008 	ldr	r6, [r7, #8]

//expands the given line
void expand_cache_line(struct CacheWave * cache_line){
	//allocate space for the new array
	unsigned int new_length	= (cache_line->allocated_length << 1) | 0b1;
	double * new_array = malloc(sizeof(double) * new_length);
     f54:	e1a08000 	mov	r8, r0
	
	//copy over all used samples in the array
	for(unsigned int i = 0; i < cache_line->used_length; i++){
     f58:	e3560000 	cmp	r6, #0
     f5c:	0a000026 	beq	ffc <expand_cache_line+0xc8>
     f60:	e3560004 	cmp	r6, #4
     f64:	e5970000 	ldr	r0, [r7]
		music_cache.cache_lines[i].used_length = 0;
	}
}

//expands the given line
void expand_cache_line(struct CacheWave * cache_line){
     f68:	e246a003 	sub	r10, r6, #3
     f6c:	9a000020 	bls	ff4 <expand_cache_line+0xc0>
     f70:	e1a0c000 	mov	r12, r0
     f74:	e1a0e008 	mov	lr, r8
	//allocate space for the new array
	unsigned int new_length	= (cache_line->allocated_length << 1) | 0b1;
	double * new_array = malloc(sizeof(double) * new_length);
	
	//copy over all used samples in the array
	for(unsigned int i = 0; i < cache_line->used_length; i++){
     f78:	e3a05000 	mov	r5, #0
		new_array[i] = cache_line->waveform[i];
     f7c:	e1cc20d0 	ldrd	r2, [r12]
     f80:	f5dcf0a0 	pld	[r12, #160]	; 0xa0
     f84:	e28ee020 	add	lr, lr, #32
     f88:	e28cc020 	add	r12, r12, #32
     f8c:	e2851005 	add	r1, r5, #5
     f90:	e14e22f0 	strd	r2, [lr, #-32]	; 0xffffffe0
     f94:	e15a0001 	cmp	r10, r1
	//allocate space for the new array
	unsigned int new_length	= (cache_line->allocated_length << 1) | 0b1;
	double * new_array = malloc(sizeof(double) * new_length);
	
	//copy over all used samples in the array
	for(unsigned int i = 0; i < cache_line->used_length; i++){
     f98:	e2851004 	add	r1, r5, #4
		new_array[i] = cache_line->waveform[i];
     f9c:	e14c21d8 	ldrd	r2, [r12, #-24]	; 0xffffffe8
	//allocate space for the new array
	unsigned int new_length	= (cache_line->allocated_length << 1) | 0b1;
	double * new_array = malloc(sizeof(double) * new_length);
	
	//copy over all used samples in the array
	for(unsigned int i = 0; i < cache_line->used_length; i++){
     fa0:	e1a05001 	mov	r5, r1
		new_array[i] = cache_line->waveform[i];
     fa4:	e14e21f8 	strd	r2, [lr, #-24]	; 0xffffffe8
     fa8:	e14c21d0 	ldrd	r2, [r12, #-16]
     fac:	e14e21f0 	strd	r2, [lr, #-16]
     fb0:	e14c20d8 	ldrd	r2, [r12, #-8]
     fb4:	e14e20f8 	strd	r2, [lr, #-8]
     fb8:	8affffef 	bhi	f7c <expand_cache_line+0x48>
		music_cache.cache_lines[i].used_length = 0;
	}
}

//expands the given line
void expand_cache_line(struct CacheWave * cache_line){
     fbc:	e1a0e181 	lsl	lr, r1, #3
     fc0:	e3a0c000 	mov	r12, #0
     fc4:	e080500e 	add	r5, r0, lr
     fc8:	e088e00e 	add	lr, r8, lr
	unsigned int new_length	= (cache_line->allocated_length << 1) | 0b1;
	double * new_array = malloc(sizeof(double) * new_length);
	
	//copy over all used samples in the array
	for(unsigned int i = 0; i < cache_line->used_length; i++){
		new_array[i] = cache_line->waveform[i];
     fcc:	e18520dc 	ldrd	r2, [r5, r12]
	//allocate space for the new array
	unsigned int new_length	= (cache_line->allocated_length << 1) | 0b1;
	double * new_array = malloc(sizeof(double) * new_length);
	
	//copy over all used samples in the array
	for(unsigned int i = 0; i < cache_line->used_length; i++){
     fd0:	e2811001 	add	r1, r1, #1
     fd4:	e1560001 	cmp	r6, r1
		new_array[i] = cache_line->waveform[i];
     fd8:	e18e20fc 	strd	r2, [lr, r12]
     fdc:	e28cc008 	add	r12, r12, #8
	//allocate space for the new array
	unsigned int new_length	= (cache_line->allocated_length << 1) | 0b1;
	double * new_array = malloc(sizeof(double) * new_length);
	
	//copy over all used samples in the array
	for(unsigned int i = 0; i < cache_line->used_length; i++){
     fe0:	8afffff9 	bhi	fcc <expand_cache_line+0x98>
		new_array[i] = cache_line->waveform[i];
	}
	
	//free the old array
	free(cache_line->waveform);
     fe4:	eb0014ed 	bl	63a0 <free>
	
	//store the new array where the old array was
	cache_line->waveform = new_array;
     fe8:	e5878000 	str	r8, [r7]
	
	//update the allocated space
	cache_line->allocated_length = new_length;
     fec:	e5874004 	str	r4, [r7, #4]
     ff0:	e8bd85f8 	pop	{r3, r4, r5, r6, r7, r8, r10, pc}
		music_cache.cache_lines[i].used_length = 0;
	}
}

//expands the given line
void expand_cache_line(struct CacheWave * cache_line){
     ff4:	e3a01000 	mov	r1, #0
     ff8:	eaffffef 	b	fbc <expand_cache_line+0x88>
     ffc:	e5970000 	ldr	r0, [r7]
    1000:	eafffff7 	b	fe4 <expand_cache_line+0xb0>

00001004 <get_note_wave>:
	//update the allocated space
	cache_line->allocated_length = new_length;
}

//returns a dynamically allocated array representing the wave intensity of each sample for the note
struct MusicWave get_note_wave(struct MusicNote music_note){
    1004:	e24dd008 	sub	sp, sp, #8
    1008:	e92d4ff0 	push	{r4, r5, r6, r7, r8, r9, r10, r11, lr}
    100c:	e24dd054 	sub	sp, sp, #84	; 0x54
    1010:	e28d1074 	add	r1, sp, #116	; 0x74
    1014:	e58d0018 	str	r0, [sp, #24]
    1018:	e981000c 	stmib	r1, {r2, r3}
	//find the number of samples for the duration given
	unsigned int number_of_samples = (unsigned int) floor(music_note.duration * sampling_frequency);
    101c:	e3a03901 	mov	r3, #16384	; 0x4000
    1020:	e3a02000 	mov	r2, #0
    1024:	e34430bf 	movt	r3, #16575	; 0x40bf
    1028:	e1cd08d0 	ldrd	r0, [sp, #128]	; 0x80
    102c:	eb001316 	bl	5c8c <__aeabi_dmul>
    1030:	eb0004c4 	bl	2348 <floor>
    1034:	eb0014a3 	bl	62c8 <__aeabi_d2uiz>
    1038:	e59d4078 	ldr	r4, [sp, #120]	; 0x78
    103c:	e1a09000 	mov	r9, r0
	
	//preallocate enough space for all samples
	double * wave_array = malloc(number_of_samples * sizeof(double));
    1040:	e1a00180 	lsl	r0, r0, #3
    1044:	e59d8098 	ldr	r8, [sp, #152]	; 0x98
    1048:	eb0014cc 	bl	6380 <malloc>
	
	//if the note is silent, return an empty array
	if(!strcmp(music_note.note, "S")){ 
    104c:	e307170c 	movw	r1, #30476	; 0x770c
struct MusicWave get_note_wave(struct MusicNote music_note){
	//find the number of samples for the duration given
	unsigned int number_of_samples = (unsigned int) floor(music_note.duration * sampling_frequency);
	
	//preallocate enough space for all samples
	double * wave_array = malloc(number_of_samples * sizeof(double));
    1050:	e1a0a000 	mov	r10, r0
	
	//if the note is silent, return an empty array
	if(!strcmp(music_note.note, "S")){ 
    1054:	e3401000 	movt	r1, #0
    1058:	e1a00004 	mov	r0, r4
    105c:	eb0016b0 	bl	6b24 <strcmp>
    1060:	e3500000 	cmp	r0, #0
    1064:	1a000012 	bne	10b4 <get_note_wave+0xb0>
		for(int i = 0; i < number_of_samples; i++){
    1068:	e3590000 	cmp	r9, #0
			wave_array[i] = 0;
    106c:	13a02000 	movne	r2, #0
    1070:	13a03000 	movne	r3, #0
	//update the allocated space
	cache_line->allocated_length = new_length;
}

//returns a dynamically allocated array representing the wave intensity of each sample for the note
struct MusicWave get_note_wave(struct MusicNote music_note){
    1074:	11a01000 	movne	r1, r0
	//preallocate enough space for all samples
	double * wave_array = malloc(number_of_samples * sizeof(double));
	
	//if the note is silent, return an empty array
	if(!strcmp(music_note.note, "S")){ 
		for(int i = 0; i < number_of_samples; i++){
    1078:	0a000005 	beq	1094 <get_note_wave+0x90>
    107c:	e2811001 	add	r1, r1, #1
			wave_array[i] = 0;
    1080:	e1a00180 	lsl	r0, r0, #3
	//preallocate enough space for all samples
	double * wave_array = malloc(number_of_samples * sizeof(double));
	
	//if the note is silent, return an empty array
	if(!strcmp(music_note.note, "S")){ 
		for(int i = 0; i < number_of_samples; i++){
    1084:	e1510009 	cmp	r1, r9
			wave_array[i] = 0;
    1088:	e18a20f0 	strd	r2, [r10, r0]
	//preallocate enough space for all samples
	double * wave_array = malloc(number_of_samples * sizeof(double));
	
	//if the note is silent, return an empty array
	if(!strcmp(music_note.note, "S")){ 
		for(int i = 0; i < number_of_samples; i++){
    108c:	e1a00001 	mov	r0, r1
    1090:	1afffff9 	bne	107c <get_note_wave+0x78>
			wave_array[i] = 0;
		}
		
		struct MusicWave wave = {.waveform = wave_array, .length = number_of_samples};
		return wave;
    1094:	e59d4018 	ldr	r4, [sp, #24]
    1098:	e1a00004 	mov	r0, r4
    109c:	e584a000 	str	r10, [r4]
    10a0:	e5849004 	str	r9, [r4, #4]
	}
	
	//return the sampled wave
	struct MusicWave wave = {.waveform = wave_array, .length = number_of_samples};
	return wave;
    10a4:	e28dd054 	add	sp, sp, #84	; 0x54
    10a8:	e8bd4ff0 	pop	{r4, r5, r6, r7, r8, r9, r10, r11, lr}
    10ac:	e28dd008 	add	sp, sp, #8
    10b0:	e12fff1e 	bx	lr
		struct MusicWave wave = {.waveform = wave_array, .length = number_of_samples};
		return wave;
	}
	
	//find the frequency for the given note and octave
	int note_number = get_num(music_note.note, music_note.octave);
    10b4:	e59d107c 	ldr	r1, [sp, #124]	; 0x7c
    10b8:	e1a00004 	mov	r0, r4
    10bc:	ebfffef8 	bl	ca4 <get_num>
    10c0:	e1a0b000 	mov	r11, r0
extern struct StatusFlags status_flags;

//returns the frequency requested of the key number given
double get_frequency(int key_number){
	const double middle_A_freq = 440; //Hz
	const int middle_A_num = get_num("A", 4); //number pertaining to the middle A
    10c4:	e3070700 	movw	r0, #30464	; 0x7700
    10c8:	e3a01004 	mov	r1, #4
    10cc:	e3400000 	movt	r0, #0
    10d0:	ebfffef3 	bl	ca4 <get_num>
	
	const double semitone_mult = pow(2, (1.0/12.0)); //change in frequency when going up or down one key
	double semitone_jump = key_number - middle_A_num; //number of jumps from key requested to middle A
    10d4:	e060000b 	rsb	r0, r0, r11
    10d8:	eb0012b4 	bl	5bb0 <__aeabi_i2d>
    10dc:	e1a02000 	mov	r2, r0
    10e0:	e1a03001 	mov	r3, r1
	
	double change_in_freq = pow(semitone_mult, semitone_jump);
    10e4:	e3070963 	movw	r0, #31075	; 0x7963
    10e8:	e30f138f 	movw	r1, #62351	; 0xf38f
    10ec:	e34902d9 	movt	r0, #37593	; 0x92d9
    10f0:	e3431ff0 	movt	r1, #16368	; 0x3ff0
    10f4:	eb000539 	bl	25e0 <pow>
	
	return change_in_freq * middle_A_freq;
    10f8:	e3a03902 	mov	r3, #32768	; 0x8000
    10fc:	e3a02000 	mov	r2, #0
    1100:	e344307b 	movt	r3, #16507	; 0x407b
    1104:	eb0012e0 	bl	5c8c <__aeabi_dmul>
	//find the frequency for the given note and octave
	int note_number = get_num(music_note.note, music_note.octave);
	double frequency = get_frequency(note_number);
		
	//check for fundamental frequency overflow or the note number is out of bounds
	if(frequency > MAX_FREQUENCY || (note_number < 0 || note_number > 127))
    1108:	e3a03b13 	mov	r3, #19456	; 0x4c00
    110c:	e3a02000 	mov	r2, #0
    1110:	e34430ad 	movt	r3, #16557	; 0x40ad
	const double semitone_mult = pow(2, (1.0/12.0)); //change in frequency when going up or down one key
	double semitone_jump = key_number - middle_A_num; //number of jumps from key requested to middle A
	
	double change_in_freq = pow(semitone_mult, semitone_jump);
	
	return change_in_freq * middle_A_freq;
    1114:	e1cd00f8 	strd	r0, [sp, #8]
	//find the frequency for the given note and octave
	int note_number = get_num(music_note.note, music_note.octave);
	double frequency = get_frequency(note_number);
		
	//check for fundamental frequency overflow or the note number is out of bounds
	if(frequency > MAX_FREQUENCY || (note_number < 0 || note_number > 127))
    1118:	eb00144d 	bl	6254 <__aeabi_dcmpgt>
    111c:	e3500000 	cmp	r0, #0
    1120:	0a0001b7 	beq	1804 <get_note_wave+0x800>
		status_flags.frequency_overflow = true;
    1124:	e3053f60 	movw	r3, #24416	; 0x5f60
    1128:	e3a02001 	mov	r2, #1
    112c:	e3403012 	movt	r3, #18
    1130:	e5c32004 	strb	r2, [r3, #4]
	
	//set the current time to zero at the beginning of the wave
	double current_time = 0;
	
	//find the index of the start of each stage in the adsr envelope
	unsigned int delay_start = (unsigned int) floor(music_note.adsr_envelope[0] * number_of_samples);
    1134:	e1a00009 	mov	r0, r9
    1138:	eb001293 	bl	5b8c <__aeabi_ui2d>
    113c:	e1c820d0 	ldrd	r2, [r8]
    1140:	e1a04000 	mov	r4, r0
    1144:	e1a05001 	mov	r5, r1
    1148:	eb0012cf 	bl	5c8c <__aeabi_dmul>
    114c:	eb00047d 	bl	2348 <floor>
    1150:	eb00145c 	bl	62c8 <__aeabi_d2uiz>
    1154:	e58d0030 	str	r0, [sp, #48]	; 0x30
	unsigned int sustain_start = (unsigned int) floor(delay_start + music_note.adsr_envelope[1] * number_of_samples);
    1158:	eb00128b 	bl	5b8c <__aeabi_ui2d>
    115c:	e1c820d8 	ldrd	r2, [r8, #8]
    1160:	e1cd03f8 	strd	r0, [sp, #56]	; 0x38
    1164:	e1a00004 	mov	r0, r4
    1168:	e1a01005 	mov	r1, r5
    116c:	eb0012c6 	bl	5c8c <__aeabi_dmul>
    1170:	e1a02000 	mov	r2, r0
    1174:	e1a03001 	mov	r3, r1
    1178:	e1cd03d8 	ldrd	r0, [sp, #56]	; 0x38
    117c:	eb0011be 	bl	587c <__adddf3>
    1180:	eb000470 	bl	2348 <floor>
    1184:	eb00144f 	bl	62c8 <__aeabi_d2uiz>
    1188:	e58d0034 	str	r0, [sp, #52]	; 0x34
	unsigned int release_start = (unsigned int) floor(sustain_start + music_note.adsr_envelope[2] * number_of_samples);
    118c:	eb00127e 	bl	5b8c <__aeabi_ui2d>
    1190:	e1c821d0 	ldrd	r2, [r8, #16]
    1194:	e1a06000 	mov	r6, r0
    1198:	e1a07001 	mov	r7, r1
    119c:	e1a00004 	mov	r0, r4
    11a0:	e1a01005 	mov	r1, r5
    11a4:	eb0012b8 	bl	5c8c <__aeabi_dmul>
    11a8:	e1a02000 	mov	r2, r0
    11ac:	e1a03001 	mov	r3, r1
    11b0:	e1a00006 	mov	r0, r6
    11b4:	e1a01007 	mov	r1, r7
    11b8:	eb0011af 	bl	587c <__adddf3>
    11bc:	eb000461 	bl	2348 <floor>
    11c0:	eb001440 	bl	62c8 <__aeabi_d2uiz>
	
	//the volumes of each part of the envelope
	double peak_volume = music_note.peak_intensity * default_amplitude;
    11c4:	e306324d 	movw	r3, #25165	; 0x624d
	double current_time = 0;
	
	//find the index of the start of each stage in the adsr envelope
	unsigned int delay_start = (unsigned int) floor(music_note.adsr_envelope[0] * number_of_samples);
	unsigned int sustain_start = (unsigned int) floor(delay_start + music_note.adsr_envelope[1] * number_of_samples);
	unsigned int release_start = (unsigned int) floor(sustain_start + music_note.adsr_envelope[2] * number_of_samples);
    11c8:	e58d0048 	str	r0, [sp, #72]	; 0x48
	
	//the volumes of each part of the envelope
	double peak_volume = music_note.peak_intensity * default_amplitude;
    11cc:	e3a02103 	mov	r2, #-1073741824	; 0xc0000000
    11d0:	e3443150 	movt	r3, #16720	; 0x4150
    11d4:	e1cd08d8 	ldrd	r0, [sp, #136]	; 0x88
    11d8:	eb0012ab 	bl	5c8c <__aeabi_dmul>
	double sustain_volume = music_note.sustain_intensity * default_amplitude;
    11dc:	e306324d 	movw	r3, #25165	; 0x624d
	unsigned int delay_start = (unsigned int) floor(music_note.adsr_envelope[0] * number_of_samples);
	unsigned int sustain_start = (unsigned int) floor(delay_start + music_note.adsr_envelope[1] * number_of_samples);
	unsigned int release_start = (unsigned int) floor(sustain_start + music_note.adsr_envelope[2] * number_of_samples);
	
	//the volumes of each part of the envelope
	double peak_volume = music_note.peak_intensity * default_amplitude;
    11e0:	e1cd02f8 	strd	r0, [sp, #40]	; 0x28
	double sustain_volume = music_note.sustain_intensity * default_amplitude;
    11e4:	e3a02103 	mov	r2, #-1073741824	; 0xc0000000
    11e8:	e1cd09d0 	ldrd	r0, [sp, #144]	; 0x90
    11ec:	e3443150 	movt	r3, #16720	; 0x4150
    11f0:	eb0012a5 	bl	5c8c <__aeabi_dmul>
	double sample_volume;
	
	//loop through the entire array, taking samples of the wave at each time given
	for(unsigned int index = 0; index < number_of_samples; index++){
    11f4:	e3590000 	cmp	r9, #0
	unsigned int sustain_start = (unsigned int) floor(delay_start + music_note.adsr_envelope[1] * number_of_samples);
	unsigned int release_start = (unsigned int) floor(sustain_start + music_note.adsr_envelope[2] * number_of_samples);
	
	//the volumes of each part of the envelope
	double peak_volume = music_note.peak_intensity * default_amplitude;
	double sustain_volume = music_note.sustain_intensity * default_amplitude;
    11f8:	e1cd04f0 	strd	r0, [sp, #64]	; 0x40
	double sample_volume;
	
	//loop through the entire array, taking samples of the wave at each time given
	for(unsigned int index = 0; index < number_of_samples; index++){
    11fc:	0a000165 	beq	1798 <get_note_wave+0x794>
    1200:	e08b308b 	add	r3, r11, r11, lsl #1
	//check for fundamental frequency overflow or the note number is out of bounds
	if(frequency > MAX_FREQUENCY || (note_number < 0 || note_number > 127))
		status_flags.frequency_overflow = true;
	
	//set the current time to zero at the beginning of the wave
	double current_time = 0;
    1204:	e3a05000 	mov	r5, #0
    1208:	e3a04000 	mov	r4, #0
			if(cache_line->used_length >= cache_line->allocated_length){
				expand_cache_line(cache_line);
			}
			
			//create the sample since it doesn't exist in cache
			wave_array[index] = 0;
    120c:	e58d9024 	str	r9, [sp, #36]	; 0x24
	//check for fundamental frequency overflow or the note number is out of bounds
	if(frequency > MAX_FREQUENCY || (note_number < 0 || note_number > 127))
		status_flags.frequency_overflow = true;
	
	//set the current time to zero at the beginning of the wave
	double current_time = 0;
    1210:	e1cd41f0 	strd	r4, [sp, #16]
    1214:	e1a0c103 	lsl	r12, r3, #2
    1218:	e3035ca8 	movw	r5, #15528	; 0x3ca8
			if(cache_line->used_length >= cache_line->allocated_length){
				expand_cache_line(cache_line);
			}
			
			//create the sample since it doesn't exist in cache
			wave_array[index] = 0;
    121c:	e58da04c 	str	r10, [sp, #76]	; 0x4c
    1220:	e3405015 	movt	r5, #21
	//update the allocated space
	cache_line->allocated_length = new_length;
}

//returns a dynamically allocated array representing the wave intensity of each sample for the note
struct MusicWave get_note_wave(struct MusicNote music_note){
    1224:	e28ab008 	add	r11, r10, #8
	double peak_volume = music_note.peak_intensity * default_amplitude;
	double sustain_volume = music_note.sustain_intensity * default_amplitude;
	double sample_volume;
	
	//loop through the entire array, taking samples of the wave at each time given
	for(unsigned int index = 0; index < number_of_samples; index++){
    1228:	e3a08000 	mov	r8, #0
    122c:	e58d5020 	str	r5, [sp, #32]
			if(cache_line->used_length >= cache_line->allocated_length){
				expand_cache_line(cache_line);
			}
			
			//create the sample since it doesn't exist in cache
			wave_array[index] = 0;
    1230:	e1a0900c 	mov	r9, r12
    1234:	ea00002a 	b	12e4 <get_note_wave+0x2e0>
		struct CacheWave * cache_line = &music_cache.cache_lines[note_number];
		
		//check the cache if there exists a sample already calculated
		if(index < cache_line->used_length){
			//copy cache sample to current wave
			wave_array[index] = cache_line->waveform[index];
    1238:	e7952009 	ldr	r2, [r5, r9]
    123c:	e1a03188 	lsl	r3, r8, #3
	//update the allocated space
	cache_line->allocated_length = new_length;
}

//returns a dynamically allocated array representing the wave intensity of each sample for the note
struct MusicWave get_note_wave(struct MusicNote music_note){
    1240:	e24ba008 	sub	r10, r11, #8
		struct CacheWave * cache_line = &music_cache.cache_lines[note_number];
		
		//check the cache if there exists a sample already calculated
		if(index < cache_line->used_length){
			//copy cache sample to current wave
			wave_array[index] = cache_line->waveform[index];
    1244:	e18240d3 	ldrd	r4, [r2, r3]
    1248:	e14b40f8 	strd	r4, [r11, #-8]
			//increment length to match
			cache_line->used_length++;
		}
		
		//apply an adsr envelope
		if(wave_array[index] != 0){
    124c:	e1a00004 	mov	r0, r4
    1250:	e1a01005 	mov	r1, r5
    1254:	e3a02000 	mov	r2, #0
    1258:	e3a03000 	mov	r3, #0
    125c:	eb0013e4 	bl	61f4 <__aeabi_dcmpeq>
    1260:	e3500000 	cmp	r0, #0
    1264:	1a000012 	bne	12b4 <get_note_wave+0x2b0>
			//check which stage the sample is part of
			if(index < delay_start){ //part of attack
    1268:	e59dc030 	ldr	r12, [sp, #48]	; 0x30
    126c:	e15c0008 	cmp	r12, r8
    1270:	9a0000ee 	bls	1630 <get_note_wave+0x62c>
				sample_volume = (peak_volume / delay_start) * index;
    1274:	e1cd23d8 	ldrd	r2, [sp, #56]	; 0x38
    1278:	e1cd02d8 	ldrd	r0, [sp, #40]	; 0x28
    127c:	eb001326 	bl	5f1c <__aeabi_ddiv>
    1280:	e1a06000 	mov	r6, r0
    1284:	e1a07001 	mov	r7, r1
    1288:	e1a00008 	mov	r0, r8
    128c:	eb00123e 	bl	5b8c <__aeabi_ui2d>
    1290:	e1a02000 	mov	r2, r0
    1294:	e1a03001 	mov	r3, r1
    1298:	e1a00006 	mov	r0, r6
    129c:	e1a01007 	mov	r1, r7
    12a0:	eb001279 	bl	5c8c <__aeabi_dmul>
				sample_volume = sustain_volume;
			} else { //part of release
				sample_volume = sustain_volume - ((sustain_volume / (number_of_samples - release_start)) * (index - release_start));
			}
			
			wave_array[index] *= sample_volume;
    12a4:	e1a02004 	mov	r2, r4
    12a8:	e1a03005 	mov	r3, r5
    12ac:	eb001276 	bl	5c8c <__aeabi_dmul>
    12b0:	e1ca00f0 	strd	r0, [r10]
		}
		
		//increment the current time
		current_time += sampling_period;
    12b4:	e30a29fc 	movw	r2, #43516	; 0xa9fc
    12b8:	e306324d 	movw	r3, #25165	; 0x624d
    12bc:	e1cd01d0 	ldrd	r0, [sp, #16]
    12c0:	e34d22f1 	movt	r2, #54001	; 0xd2f1
    12c4:	e3433f20 	movt	r3, #16160	; 0x3f20
	double peak_volume = music_note.peak_intensity * default_amplitude;
	double sustain_volume = music_note.sustain_intensity * default_amplitude;
	double sample_volume;
	
	//loop through the entire array, taking samples of the wave at each time given
	for(unsigned int index = 0; index < number_of_samples; index++){
    12c8:	e2888001 	add	r8, r8, #1
			
			wave_array[index] *= sample_volume;
		}
		
		//increment the current time
		current_time += sampling_period;
    12cc:	eb00116a 	bl	587c <__adddf3>
	double peak_volume = music_note.peak_intensity * default_amplitude;
	double sustain_volume = music_note.sustain_intensity * default_amplitude;
	double sample_volume;
	
	//loop through the entire array, taking samples of the wave at each time given
	for(unsigned int index = 0; index < number_of_samples; index++){
    12d0:	e59d4024 	ldr	r4, [sp, #36]	; 0x24
    12d4:	e28bb008 	add	r11, r11, #8
			
			wave_array[index] *= sample_volume;
		}
		
		//increment the current time
		current_time += sampling_period;
    12d8:	e1cd01f0 	strd	r0, [sp, #16]
	double peak_volume = music_note.peak_intensity * default_amplitude;
	double sustain_volume = music_note.sustain_intensity * default_amplitude;
	double sample_volume;
	
	//loop through the entire array, taking samples of the wave at each time given
	for(unsigned int index = 0; index < number_of_samples; index++){
    12dc:	e1580004 	cmp	r8, r4
    12e0:	0a00012a 	beq	1790 <get_note_wave+0x78c>
		struct CacheWave * cache_line = &music_cache.cache_lines[note_number];
    12e4:	e59da020 	ldr	r10, [sp, #32]
    12e8:	e59a5000 	ldr	r5, [r10]
    12ec:	e0857009 	add	r7, r5, r9
		
		//check the cache if there exists a sample already calculated
		if(index < cache_line->used_length){
    12f0:	e5976008 	ldr	r6, [r7, #8]
    12f4:	e1560008 	cmp	r6, r8
    12f8:	8affffce 	bhi	1238 <get_note_wave+0x234>
			//copy cache sample to current wave
			wave_array[index] = cache_line->waveform[index];
			
		} else {
			//expand the cache if needed prior to creating a new sample
			if(cache_line->used_length >= cache_line->allocated_length){
    12fc:	e5974004 	ldr	r4, [r7, #4]
    1300:	e1560004 	cmp	r6, r4
    1304:	2a0000e9 	bcs	16b0 <get_note_wave+0x6ac>
    1308:	e7955009 	ldr	r5, [r5, r9]
    130c:	e58d501c 	str	r5, [sp, #28]
				expand_cache_line(cache_line);
			}
			
			//create the sample since it doesn't exist in cache
			wave_array[index] = 0;
    1310:	e3a05000 	mov	r5, #0
    1314:	e3a04000 	mov	r4, #0
    1318:	e14b40f8 	strd	r4, [r11, #-8]
		
			//add each wanted harmonic of the note given as long as it doesn't overflow
			for(unsigned int harmonic = 1; frequency * harmonic < MAX_FREQUENCY && harmonic < max_harmonics; harmonic++){
    131c:	e3a03b13 	mov	r3, #19456	; 0x4c00
			if(cache_line->used_length >= cache_line->allocated_length){
				expand_cache_line(cache_line);
			}
			
			//create the sample since it doesn't exist in cache
			wave_array[index] = 0;
    1320:	e1a05188 	lsl	r5, r8, #3
		
			//add each wanted harmonic of the note given as long as it doesn't overflow
			for(unsigned int harmonic = 1; frequency * harmonic < MAX_FREQUENCY && harmonic < max_harmonics; harmonic++){
    1324:	e1cd00d8 	ldrd	r0, [sp, #8]
    1328:	e3a02000 	mov	r2, #0
    132c:	e34430ad 	movt	r3, #16557	; 0x40ad
			if(cache_line->used_length >= cache_line->allocated_length){
				expand_cache_line(cache_line);
			}
			
			//create the sample since it doesn't exist in cache
			wave_array[index] = 0;
    1330:	e58d5004 	str	r5, [sp, #4]
		
			//add each wanted harmonic of the note given as long as it doesn't overflow
			for(unsigned int harmonic = 1; frequency * harmonic < MAX_FREQUENCY && harmonic < max_harmonics; harmonic++){
    1334:	eb0013b4 	bl	620c <__aeabi_dcmplt>
    1338:	e3500000 	cmp	r0, #0
	//update the allocated space
	cache_line->allocated_length = new_length;
}

//returns a dynamically allocated array representing the wave intensity of each sample for the note
struct MusicWave get_note_wave(struct MusicNote music_note){
    133c:	e24ba008 	sub	r10, r11, #8
    1340:	f5dbf000 	pld	[r11]
			
			//create the sample since it doesn't exist in cache
			wave_array[index] = 0;
		
			//add each wanted harmonic of the note given as long as it doesn't overflow
			for(unsigned int harmonic = 1; frequency * harmonic < MAX_FREQUENCY && harmonic < max_harmonics; harmonic++){
    1344:	0a0000b0 	beq	160c <get_note_wave+0x608>
				wave_array[index] += pow(harmonic_sensitivity, harmonic - 1) * sin(harmonic * 2 * pi * frequency * current_time);
    1348:	e3022d18 	movw	r2, #11544	; 0x2d18
    134c:	e30231fb 	movw	r3, #8699	; 0x21fb
    1350:	e3452444 	movt	r2, #21572	; 0x5444
    1354:	e3443019 	movt	r3, #16409	; 0x4019
    1358:	e1cd00d8 	ldrd	r0, [sp, #8]
    135c:	eb00124a 	bl	5c8c <__aeabi_dmul>
    1360:	e1cd21d0 	ldrd	r2, [sp, #16]
    1364:	eb001248 	bl	5c8c <__aeabi_dmul>
    1368:	eb00045c 	bl	24e0 <sin>
    136c:	e3a02000 	mov	r2, #0
    1370:	e3a03000 	mov	r3, #0
    1374:	eb001140 	bl	587c <__adddf3>
    1378:	e1a04000 	mov	r4, r0
    137c:	e1a05001 	mov	r5, r1
			
			//create the sample since it doesn't exist in cache
			wave_array[index] = 0;
		
			//add each wanted harmonic of the note given as long as it doesn't overflow
			for(unsigned int harmonic = 1; frequency * harmonic < MAX_FREQUENCY && harmonic < max_harmonics; harmonic++){
    1380:	e1cd00d8 	ldrd	r0, [sp, #8]
				wave_array[index] += pow(harmonic_sensitivity, harmonic - 1) * sin(harmonic * 2 * pi * frequency * current_time);
    1384:	e14b40f8 	strd	r4, [r11, #-8]
			
			//create the sample since it doesn't exist in cache
			wave_array[index] = 0;
		
			//add each wanted harmonic of the note given as long as it doesn't overflow
			for(unsigned int harmonic = 1; frequency * harmonic < MAX_FREQUENCY && harmonic < max_harmonics; harmonic++){
    1388:	e1a02000 	mov	r2, r0
    138c:	e1a03001 	mov	r3, r1
    1390:	eb001139 	bl	587c <__adddf3>
    1394:	e3a03b13 	mov	r3, #19456	; 0x4c00
    1398:	e3a02000 	mov	r2, #0
    139c:	e34430ad 	movt	r3, #16557	; 0x40ad
    13a0:	eb001399 	bl	620c <__aeabi_dcmplt>
    13a4:	e3500000 	cmp	r0, #0
    13a8:	0a000097 	beq	160c <get_note_wave+0x608>
				wave_array[index] += pow(harmonic_sensitivity, harmonic - 1) * sin(harmonic * 2 * pi * frequency * current_time);
    13ac:	e3022d18 	movw	r2, #11544	; 0x2d18
    13b0:	e30231fb 	movw	r3, #8699	; 0x21fb
    13b4:	e3452444 	movt	r2, #21572	; 0x5444
    13b8:	e3443029 	movt	r3, #16425	; 0x4029
    13bc:	e1cd00d8 	ldrd	r0, [sp, #8]
    13c0:	eb001231 	bl	5c8c <__aeabi_dmul>
    13c4:	e1cd21d0 	ldrd	r2, [sp, #16]
    13c8:	eb00122f 	bl	5c8c <__aeabi_dmul>
    13cc:	eb000443 	bl	24e0 <sin>
    13d0:	e3062666 	movw	r2, #26214	; 0x6666
    13d4:	e3063666 	movw	r3, #26214	; 0x6666
    13d8:	e3462666 	movt	r2, #26214	; 0x6666
    13dc:	e3433fe6 	movt	r3, #16358	; 0x3fe6
    13e0:	eb001229 	bl	5c8c <__aeabi_dmul>
    13e4:	e1a02000 	mov	r2, r0
    13e8:	e1a03001 	mov	r3, r1
    13ec:	e1a00004 	mov	r0, r4
    13f0:	e1a01005 	mov	r1, r5
    13f4:	eb001120 	bl	587c <__adddf3>
			
			//create the sample since it doesn't exist in cache
			wave_array[index] = 0;
		
			//add each wanted harmonic of the note given as long as it doesn't overflow
			for(unsigned int harmonic = 1; frequency * harmonic < MAX_FREQUENCY && harmonic < max_harmonics; harmonic++){
    13f8:	e3a03000 	mov	r3, #0
				wave_array[index] += pow(harmonic_sensitivity, harmonic - 1) * sin(harmonic * 2 * pi * frequency * current_time);
    13fc:	e1a04000 	mov	r4, r0
    1400:	e1a05001 	mov	r5, r1
			
			//create the sample since it doesn't exist in cache
			wave_array[index] = 0;
		
			//add each wanted harmonic of the note given as long as it doesn't overflow
			for(unsigned int harmonic = 1; frequency * harmonic < MAX_FREQUENCY && harmonic < max_harmonics; harmonic++){
    1404:	e3a02000 	mov	r2, #0
    1408:	e3443008 	movt	r3, #16392	; 0x4008
    140c:	e1cd00d8 	ldrd	r0, [sp, #8]
				wave_array[index] += pow(harmonic_sensitivity, harmonic - 1) * sin(harmonic * 2 * pi * frequency * current_time);
    1410:	e14b40f8 	strd	r4, [r11, #-8]
			
			//create the sample since it doesn't exist in cache
			wave_array[index] = 0;
		
			//add each wanted harmonic of the note given as long as it doesn't overflow
			for(unsigned int harmonic = 1; frequency * harmonic < MAX_FREQUENCY && harmonic < max_harmonics; harmonic++){
    1414:	eb00121c 	bl	5c8c <__aeabi_dmul>
    1418:	e3a03b13 	mov	r3, #19456	; 0x4c00
    141c:	e3a02000 	mov	r2, #0
    1420:	e34430ad 	movt	r3, #16557	; 0x40ad
    1424:	eb001378 	bl	620c <__aeabi_dcmplt>
    1428:	e3500000 	cmp	r0, #0
    142c:	0a000076 	beq	160c <get_note_wave+0x608>
				wave_array[index] += pow(harmonic_sensitivity, harmonic - 1) * sin(harmonic * 2 * pi * frequency * current_time);
    1430:	e30221d2 	movw	r2, #8658	; 0x21d2
    1434:	e30d397c 	movw	r3, #55676	; 0xd97c
    1438:	e3472f33 	movt	r2, #32563	; 0x7f33
    143c:	e3443032 	movt	r3, #16434	; 0x4032
    1440:	e1cd00d8 	ldrd	r0, [sp, #8]
    1444:	eb001210 	bl	5c8c <__aeabi_dmul>
    1448:	e1cd21d0 	ldrd	r2, [sp, #16]
    144c:	eb00120e 	bl	5c8c <__aeabi_dmul>
    1450:	eb000422 	bl	24e0 <sin>
    1454:	e3082f5b 	movw	r2, #36699	; 0x8f5b
    1458:	e3053c28 	movw	r3, #23592	; 0x5c28
    145c:	e34f25c2 	movt	r2, #62914	; 0xf5c2
    1460:	e3433fdf 	movt	r3, #16351	; 0x3fdf
    1464:	eb001208 	bl	5c8c <__aeabi_dmul>
    1468:	e1a02000 	mov	r2, r0
    146c:	e1a03001 	mov	r3, r1
    1470:	e1a00004 	mov	r0, r4
    1474:	e1a01005 	mov	r1, r5
    1478:	eb0010ff 	bl	587c <__adddf3>
			
			//create the sample since it doesn't exist in cache
			wave_array[index] = 0;
		
			//add each wanted harmonic of the note given as long as it doesn't overflow
			for(unsigned int harmonic = 1; frequency * harmonic < MAX_FREQUENCY && harmonic < max_harmonics; harmonic++){
    147c:	e3a03000 	mov	r3, #0
				wave_array[index] += pow(harmonic_sensitivity, harmonic - 1) * sin(harmonic * 2 * pi * frequency * current_time);
    1480:	e1a04000 	mov	r4, r0
    1484:	e1a05001 	mov	r5, r1
			
			//create the sample since it doesn't exist in cache
			wave_array[index] = 0;
		
			//add each wanted harmonic of the note given as long as it doesn't overflow
			for(unsigned int harmonic = 1; frequency * harmonic < MAX_FREQUENCY && harmonic < max_harmonics; harmonic++){
    1488:	e3a02000 	mov	r2, #0
    148c:	e3443010 	movt	r3, #16400	; 0x4010
    1490:	e1cd00d8 	ldrd	r0, [sp, #8]
				wave_array[index] += pow(harmonic_sensitivity, harmonic - 1) * sin(harmonic * 2 * pi * frequency * current_time);
    1494:	e14b40f8 	strd	r4, [r11, #-8]
			
			//create the sample since it doesn't exist in cache
			wave_array[index] = 0;
		
			//add each wanted harmonic of the note given as long as it doesn't overflow
			for(unsigned int harmonic = 1; frequency * harmonic < MAX_FREQUENCY && harmonic < max_harmonics; harmonic++){
    1498:	eb0011fb 	bl	5c8c <__aeabi_dmul>
    149c:	e3a03b13 	mov	r3, #19456	; 0x4c00
    14a0:	e3a02000 	mov	r2, #0
    14a4:	e34430ad 	movt	r3, #16557	; 0x40ad
    14a8:	eb001357 	bl	620c <__aeabi_dcmplt>
    14ac:	e3500000 	cmp	r0, #0
    14b0:	0a000055 	beq	160c <get_note_wave+0x608>
				wave_array[index] += pow(harmonic_sensitivity, harmonic - 1) * sin(harmonic * 2 * pi * frequency * current_time);
    14b4:	e3022d18 	movw	r2, #11544	; 0x2d18
    14b8:	e30231fb 	movw	r3, #8699	; 0x21fb
    14bc:	e3452444 	movt	r2, #21572	; 0x5444
    14c0:	e3443039 	movt	r3, #16441	; 0x4039
    14c4:	e1cd00d8 	ldrd	r0, [sp, #8]
    14c8:	eb0011ef 	bl	5c8c <__aeabi_dmul>
    14cc:	e1cd21d0 	ldrd	r2, [sp, #16]
    14d0:	eb0011ed 	bl	5c8c <__aeabi_dmul>
    14d4:	eb000401 	bl	24e0 <sin>
    14d8:	e30c2abf 	movw	r2, #51903	; 0xcabf
    14dc:	e30f33b6 	movw	r3, #62390	; 0xf3b6
    14e0:	e34425a1 	movt	r2, #17825	; 0x45a1
    14e4:	e3433fd5 	movt	r3, #16341	; 0x3fd5
    14e8:	eb0011e7 	bl	5c8c <__aeabi_dmul>
    14ec:	e1a02000 	mov	r2, r0
    14f0:	e1a03001 	mov	r3, r1
    14f4:	e1a00004 	mov	r0, r4
    14f8:	e1a01005 	mov	r1, r5
    14fc:	eb0010de 	bl	587c <__adddf3>
			
			//create the sample since it doesn't exist in cache
			wave_array[index] = 0;
		
			//add each wanted harmonic of the note given as long as it doesn't overflow
			for(unsigned int harmonic = 1; frequency * harmonic < MAX_FREQUENCY && harmonic < max_harmonics; harmonic++){
    1500:	e3a03000 	mov	r3, #0
				wave_array[index] += pow(harmonic_sensitivity, harmonic - 1) * sin(harmonic * 2 * pi * frequency * current_time);
    1504:	e1a04000 	mov	r4, r0
    1508:	e1a05001 	mov	r5, r1
			
			//create the sample since it doesn't exist in cache
			wave_array[index] = 0;
		
			//add each wanted harmonic of the note given as long as it doesn't overflow
			for(unsigned int harmonic = 1; frequency * harmonic < MAX_FREQUENCY && harmonic < max_harmonics; harmonic++){
    150c:	e3a02000 	mov	r2, #0
    1510:	e3443014 	movt	r3, #16404	; 0x4014
    1514:	e1cd00d8 	ldrd	r0, [sp, #8]
				wave_array[index] += pow(harmonic_sensitivity, harmonic - 1) * sin(harmonic * 2 * pi * frequency * current_time);
    1518:	e14b40f8 	strd	r4, [r11, #-8]
			
			//create the sample since it doesn't exist in cache
			wave_array[index] = 0;
		
			//add each wanted harmonic of the note given as long as it doesn't overflow
			for(unsigned int harmonic = 1; frequency * harmonic < MAX_FREQUENCY && harmonic < max_harmonics; harmonic++){
    151c:	eb0011da 	bl	5c8c <__aeabi_dmul>
    1520:	e3a03b13 	mov	r3, #19456	; 0x4c00
    1524:	e3a02000 	mov	r2, #0
    1528:	e34430ad 	movt	r3, #16557	; 0x40ad
    152c:	eb001336 	bl	620c <__aeabi_dcmplt>
    1530:	e3500000 	cmp	r0, #0
    1534:	0a000034 	beq	160c <get_note_wave+0x608>
				wave_array[index] += pow(harmonic_sensitivity, harmonic - 1) * sin(harmonic * 2 * pi * frequency * current_time);
    1538:	e303285e 	movw	r2, #14430	; 0x385e
    153c:	e3063a7a 	movw	r3, #27258	; 0x6a7a
    1540:	e3422955 	movt	r2, #10581	; 0x2955
    1544:	e344303f 	movt	r3, #16447	; 0x403f
    1548:	e1cd00d8 	ldrd	r0, [sp, #8]
    154c:	eb0011ce 	bl	5c8c <__aeabi_dmul>
    1550:	e1cd21d0 	ldrd	r2, [sp, #16]
    1554:	eb0011cc 	bl	5c8c <__aeabi_dmul>
    1558:	eb0003e0 	bl	24e0 <sin>
    155c:	e308223f 	movw	r2, #33343	; 0x823f
    1560:	e30b3b98 	movw	r3, #48024	; 0xbb98
    1564:	e34c27e2 	movt	r2, #51170	; 0xc7e2
    1568:	e3433fce 	movt	r3, #16334	; 0x3fce
    156c:	eb0011c6 	bl	5c8c <__aeabi_dmul>
    1570:	e1a02000 	mov	r2, r0
    1574:	e1a03001 	mov	r3, r1
    1578:	e1a00004 	mov	r0, r4
    157c:	e1a01005 	mov	r1, r5
    1580:	eb0010bd 	bl	587c <__adddf3>
			
			//create the sample since it doesn't exist in cache
			wave_array[index] = 0;
		
			//add each wanted harmonic of the note given as long as it doesn't overflow
			for(unsigned int harmonic = 1; frequency * harmonic < MAX_FREQUENCY && harmonic < max_harmonics; harmonic++){
    1584:	e3a03000 	mov	r3, #0
				wave_array[index] += pow(harmonic_sensitivity, harmonic - 1) * sin(harmonic * 2 * pi * frequency * current_time);
    1588:	e1a04000 	mov	r4, r0
    158c:	e1a05001 	mov	r5, r1
			
			//create the sample since it doesn't exist in cache
			wave_array[index] = 0;
		
			//add each wanted harmonic of the note given as long as it doesn't overflow
			for(unsigned int harmonic = 1; frequency * harmonic < MAX_FREQUENCY && harmonic < max_harmonics; harmonic++){
    1590:	e3a02000 	mov	r2, #0
    1594:	e3443018 	movt	r3, #16408	; 0x4018
    1598:	e1cd00d8 	ldrd	r0, [sp, #8]
				wave_array[index] += pow(harmonic_sensitivity, harmonic - 1) * sin(harmonic * 2 * pi * frequency * current_time);
    159c:	e14b40f8 	strd	r4, [r11, #-8]
			
			//create the sample since it doesn't exist in cache
			wave_array[index] = 0;
		
			//add each wanted harmonic of the note given as long as it doesn't overflow
			for(unsigned int harmonic = 1; frequency * harmonic < MAX_FREQUENCY && harmonic < max_harmonics; harmonic++){
    15a0:	eb0011b9 	bl	5c8c <__aeabi_dmul>
    15a4:	e3a03b13 	mov	r3, #19456	; 0x4c00
    15a8:	e3a02000 	mov	r2, #0
    15ac:	e34430ad 	movt	r3, #16557	; 0x40ad
    15b0:	eb001315 	bl	620c <__aeabi_dcmplt>
    15b4:	e3500000 	cmp	r0, #0
    15b8:	0a000013 	beq	160c <get_note_wave+0x608>
				wave_array[index] += pow(harmonic_sensitivity, harmonic - 1) * sin(harmonic * 2 * pi * frequency * current_time);
    15bc:	e30221d2 	movw	r2, #8658	; 0x21d2
    15c0:	e30d397c 	movw	r3, #55676	; 0xd97c
    15c4:	e3472f33 	movt	r2, #32563	; 0x7f33
    15c8:	e3443042 	movt	r3, #16450	; 0x4042
    15cc:	e1cd00d8 	ldrd	r0, [sp, #8]
    15d0:	eb0011ad 	bl	5c8c <__aeabi_dmul>
    15d4:	e1cd21d0 	ldrd	r2, [sp, #16]
    15d8:	eb0011ab 	bl	5c8c <__aeabi_dmul>
    15dc:	eb0003bf 	bl	24e0 <sin>
    15e0:	e30227f8 	movw	r2, #10232	; 0x27f8
    15e4:	e3083351 	movw	r3, #33617	; 0x8351
    15e8:	e34528b8 	movt	r2, #22712	; 0x58b8
    15ec:	e3433fc5 	movt	r3, #16325	; 0x3fc5
    15f0:	eb0011a5 	bl	5c8c <__aeabi_dmul>
    15f4:	e1a02000 	mov	r2, r0
    15f8:	e1a03001 	mov	r3, r1
    15fc:	e1a00004 	mov	r0, r4
    1600:	e1a01005 	mov	r1, r5
    1604:	eb00109c 	bl	587c <__adddf3>
    1608:	e14b00f8 	strd	r0, [r11, #-8]
			}
			
			//copy sample to cache
			cache_line->waveform[index] = wave_array[index];
    160c:	e59d401c 	ldr	r4, [sp, #28]
			
			//increment length to match
			cache_line->used_length++;
    1610:	e2866001 	add	r6, r6, #1
			for(unsigned int harmonic = 1; frequency * harmonic < MAX_FREQUENCY && harmonic < max_harmonics; harmonic++){
				wave_array[index] += pow(harmonic_sensitivity, harmonic - 1) * sin(harmonic * 2 * pi * frequency * current_time);
			}
			
			//copy sample to cache
			cache_line->waveform[index] = wave_array[index];
    1614:	e14b20d8 	ldrd	r2, [r11, #-8]
    1618:	f5dbf000 	pld	[r11]
    161c:	e59dc004 	ldr	r12, [sp, #4]
    1620:	e18420fc 	strd	r2, [r4, r12]
    1624:	e14b40d8 	ldrd	r4, [r11, #-8]
			
			//increment length to match
			cache_line->used_length++;
    1628:	e5876008 	str	r6, [r7, #8]
    162c:	eaffff06 	b	124c <get_note_wave+0x248>
		//apply an adsr envelope
		if(wave_array[index] != 0){
			//check which stage the sample is part of
			if(index < delay_start){ //part of attack
				sample_volume = (peak_volume / delay_start) * index;
			} else if (index < sustain_start){ //part of delay
    1630:	e59dc034 	ldr	r12, [sp, #52]	; 0x34
    1634:	e15c0008 	cmp	r12, r8
    1638:	9a00004f 	bls	177c <get_note_wave+0x778>
				sample_volume = peak_volume - (((peak_volume - sustain_volume) / (sustain_start - delay_start)) * (index - delay_start));
    163c:	e1cd24d0 	ldrd	r2, [sp, #64]	; 0x40
    1640:	e1cd02d8 	ldrd	r0, [sp, #40]	; 0x28
    1644:	eb00108b 	bl	5878 <__aeabi_dsub>
    1648:	e59de030 	ldr	lr, [sp, #48]	; 0x30
    164c:	e1a06000 	mov	r6, r0
    1650:	e59dc034 	ldr	r12, [sp, #52]	; 0x34
    1654:	e1a07001 	mov	r7, r1
    1658:	e06e000c 	rsb	r0, lr, r12
    165c:	eb00114a 	bl	5b8c <__aeabi_ui2d>
    1660:	e1a02000 	mov	r2, r0
    1664:	e1a03001 	mov	r3, r1
    1668:	e1a00006 	mov	r0, r6
    166c:	e1a01007 	mov	r1, r7
    1670:	eb001229 	bl	5f1c <__aeabi_ddiv>
    1674:	e59dc030 	ldr	r12, [sp, #48]	; 0x30
    1678:	e1a06000 	mov	r6, r0
    167c:	e1a07001 	mov	r7, r1
    1680:	e06c0008 	rsb	r0, r12, r8
    1684:	eb001140 	bl	5b8c <__aeabi_ui2d>
    1688:	e1a02000 	mov	r2, r0
    168c:	e1a03001 	mov	r3, r1
    1690:	e1a00006 	mov	r0, r6
    1694:	e1a01007 	mov	r1, r7
    1698:	eb00117b 	bl	5c8c <__aeabi_dmul>
    169c:	e1a02000 	mov	r2, r0
    16a0:	e1a03001 	mov	r3, r1
    16a4:	e1cd02d8 	ldrd	r0, [sp, #40]	; 0x28
    16a8:	eb001072 	bl	5878 <__aeabi_dsub>
    16ac:	eafffefc 	b	12a4 <get_note_wave+0x2a0>
}

//expands the given line
void expand_cache_line(struct CacheWave * cache_line){
	//allocate space for the new array
	unsigned int new_length	= (cache_line->allocated_length << 1) | 0b1;
    16b0:	e1a04084 	lsl	r4, r4, #1
    16b4:	e3844001 	orr	r4, r4, #1
	double * new_array = malloc(sizeof(double) * new_length);
    16b8:	e1a00184 	lsl	r0, r4, #3
    16bc:	eb00132f 	bl	6380 <malloc>
	
	//copy over all used samples in the array
	for(unsigned int i = 0; i < cache_line->used_length; i++){
    16c0:	e3560000 	cmp	r6, #0

//expands the given line
void expand_cache_line(struct CacheWave * cache_line){
	//allocate space for the new array
	unsigned int new_length	= (cache_line->allocated_length << 1) | 0b1;
	double * new_array = malloc(sizeof(double) * new_length);
    16c4:	e58d001c 	str	r0, [sp, #28]
	
	//copy over all used samples in the array
	for(unsigned int i = 0; i < cache_line->used_length; i++){
    16c8:	0a000052 	beq	1818 <get_note_wave+0x814>
    16cc:	e3560004 	cmp	r6, #4
    16d0:	e7950009 	ldr	r0, [r5, r9]
	//update the allocated space
	cache_line->allocated_length = new_length;
}

//returns a dynamically allocated array representing the wave intensity of each sample for the note
struct MusicWave get_note_wave(struct MusicNote music_note){
    16d4:	e246e003 	sub	lr, r6, #3
    16d8:	9a00004c 	bls	1810 <get_note_wave+0x80c>
    16dc:	e59d101c 	ldr	r1, [sp, #28]
    16e0:	e1a03000 	mov	r3, r0
	//allocate space for the new array
	unsigned int new_length	= (cache_line->allocated_length << 1) | 0b1;
	double * new_array = malloc(sizeof(double) * new_length);
	
	//copy over all used samples in the array
	for(unsigned int i = 0; i < cache_line->used_length; i++){
    16e4:	e3a0c000 	mov	r12, #0
    16e8:	e58db004 	str	r11, [sp, #4]
		new_array[i] = cache_line->waveform[i];
    16ec:	e1c3a0d0 	ldrd	r10, [r3]
    16f0:	f5d3f0a0 	pld	[r3, #160]	; 0xa0
    16f4:	e2811020 	add	r1, r1, #32
    16f8:	e2833020 	add	r3, r3, #32
    16fc:	e28c2005 	add	r2, r12, #5
    1700:	e141a2f0 	strd	r10, [r1, #-32]	; 0xffffffe0
    1704:	e152000e 	cmp	r2, lr
	//allocate space for the new array
	unsigned int new_length	= (cache_line->allocated_length << 1) | 0b1;
	double * new_array = malloc(sizeof(double) * new_length);
	
	//copy over all used samples in the array
	for(unsigned int i = 0; i < cache_line->used_length; i++){
    1708:	e28c2004 	add	r2, r12, #4
		new_array[i] = cache_line->waveform[i];
    170c:	e143a1d8 	ldrd	r10, [r3, #-24]	; 0xffffffe8
	//allocate space for the new array
	unsigned int new_length	= (cache_line->allocated_length << 1) | 0b1;
	double * new_array = malloc(sizeof(double) * new_length);
	
	//copy over all used samples in the array
	for(unsigned int i = 0; i < cache_line->used_length; i++){
    1710:	e1a0c002 	mov	r12, r2
		new_array[i] = cache_line->waveform[i];
    1714:	e141a1f8 	strd	r10, [r1, #-24]	; 0xffffffe8
    1718:	e143a1d0 	ldrd	r10, [r3, #-16]
    171c:	e141a1f0 	strd	r10, [r1, #-16]
    1720:	e143a0d8 	ldrd	r10, [r3, #-8]
    1724:	e141a0f8 	strd	r10, [r1, #-8]
    1728:	3affffef 	bcc	16ec <get_note_wave+0x6e8>
    172c:	e59db004 	ldr	r11, [sp, #4]
	//update the allocated space
	cache_line->allocated_length = new_length;
}

//returns a dynamically allocated array representing the wave intensity of each sample for the note
struct MusicWave get_note_wave(struct MusicNote music_note){
    1730:	e59da01c 	ldr	r10, [sp, #28]
    1734:	e1a01182 	lsl	r1, r2, #3
    1738:	e3a03000 	mov	r3, #0
    173c:	e080c001 	add	r12, r0, r1
    1740:	e1a0e00b 	mov	lr, r11
    1744:	e08a1001 	add	r1, r10, r1
	unsigned int new_length	= (cache_line->allocated_length << 1) | 0b1;
	double * new_array = malloc(sizeof(double) * new_length);
	
	//copy over all used samples in the array
	for(unsigned int i = 0; i < cache_line->used_length; i++){
		new_array[i] = cache_line->waveform[i];
    1748:	e18ca0d3 	ldrd	r10, [r12, r3]
	//allocate space for the new array
	unsigned int new_length	= (cache_line->allocated_length << 1) | 0b1;
	double * new_array = malloc(sizeof(double) * new_length);
	
	//copy over all used samples in the array
	for(unsigned int i = 0; i < cache_line->used_length; i++){
    174c:	e2822001 	add	r2, r2, #1
    1750:	e1560002 	cmp	r6, r2
		new_array[i] = cache_line->waveform[i];
    1754:	e181a0f3 	strd	r10, [r1, r3]
    1758:	e2833008 	add	r3, r3, #8
	//allocate space for the new array
	unsigned int new_length	= (cache_line->allocated_length << 1) | 0b1;
	double * new_array = malloc(sizeof(double) * new_length);
	
	//copy over all used samples in the array
	for(unsigned int i = 0; i < cache_line->used_length; i++){
    175c:	8afffff9 	bhi	1748 <get_note_wave+0x744>
    1760:	e1a0b00e 	mov	r11, lr
		new_array[i] = cache_line->waveform[i];
	}
	
	//free the old array
	free(cache_line->waveform);
    1764:	eb00130d 	bl	63a0 <free>
	
	//store the new array where the old array was
	cache_line->waveform = new_array;
    1768:	e59dc01c 	ldr	r12, [sp, #28]
	
	//update the allocated space
	cache_line->allocated_length = new_length;
    176c:	e5874004 	str	r4, [r7, #4]
    1770:	e5976008 	ldr	r6, [r7, #8]
	
	//free the old array
	free(cache_line->waveform);
	
	//store the new array where the old array was
	cache_line->waveform = new_array;
    1774:	e785c009 	str	r12, [r5, r9]
    1778:	eafffee4 	b	1310 <get_note_wave+0x30c>
			//check which stage the sample is part of
			if(index < delay_start){ //part of attack
				sample_volume = (peak_volume / delay_start) * index;
			} else if (index < sustain_start){ //part of delay
				sample_volume = peak_volume - (((peak_volume - sustain_volume) / (sustain_start - delay_start)) * (index - delay_start));
			} else if (index < release_start){ //part of sustain
    177c:	e59dc048 	ldr	r12, [sp, #72]	; 0x48
    1780:	e15c0008 	cmp	r12, r8
    1784:	9a000008 	bls	17ac <get_note_wave+0x7a8>
				sample_volume = sustain_volume;
    1788:	e1cd04d0 	ldrd	r0, [sp, #64]	; 0x40
    178c:	eafffec4 	b	12a4 <get_note_wave+0x2a0>
    1790:	e59da04c 	ldr	r10, [sp, #76]	; 0x4c
    1794:	e1a09004 	mov	r9, r4
		current_time += sampling_period;
	}
	
	//return the sampled wave
	struct MusicWave wave = {.waveform = wave_array, .length = number_of_samples};
	return wave;
    1798:	e59d5018 	ldr	r5, [sp, #24]
    179c:	e585a000 	str	r10, [r5]
    17a0:	e1a00005 	mov	r0, r5
    17a4:	e5859004 	str	r9, [r5, #4]
    17a8:	eafffe3d 	b	10a4 <get_note_wave+0xa0>
			} else if (index < sustain_start){ //part of delay
				sample_volume = peak_volume - (((peak_volume - sustain_volume) / (sustain_start - delay_start)) * (index - delay_start));
			} else if (index < release_start){ //part of sustain
				sample_volume = sustain_volume;
			} else { //part of release
				sample_volume = sustain_volume - ((sustain_volume / (number_of_samples - release_start)) * (index - release_start));
    17ac:	e59de024 	ldr	lr, [sp, #36]	; 0x24
    17b0:	e06c000e 	rsb	r0, r12, lr
    17b4:	eb0010f4 	bl	5b8c <__aeabi_ui2d>
    17b8:	e1a02000 	mov	r2, r0
    17bc:	e1a03001 	mov	r3, r1
    17c0:	e1cd04d0 	ldrd	r0, [sp, #64]	; 0x40
    17c4:	eb0011d4 	bl	5f1c <__aeabi_ddiv>
    17c8:	e59dc048 	ldr	r12, [sp, #72]	; 0x48
    17cc:	e1a06000 	mov	r6, r0
    17d0:	e1a07001 	mov	r7, r1
    17d4:	e06c0008 	rsb	r0, r12, r8
    17d8:	eb0010eb 	bl	5b8c <__aeabi_ui2d>
    17dc:	e1a02000 	mov	r2, r0
    17e0:	e1a03001 	mov	r3, r1
    17e4:	e1a00006 	mov	r0, r6
    17e8:	e1a01007 	mov	r1, r7
    17ec:	eb001126 	bl	5c8c <__aeabi_dmul>
    17f0:	e1a02000 	mov	r2, r0
    17f4:	e1a03001 	mov	r3, r1
    17f8:	e1cd04d0 	ldrd	r0, [sp, #64]	; 0x40
    17fc:	eb00101d 	bl	5878 <__aeabi_dsub>
    1800:	eafffea7 	b	12a4 <get_note_wave+0x2a0>
	//find the frequency for the given note and octave
	int note_number = get_num(music_note.note, music_note.octave);
	double frequency = get_frequency(note_number);
		
	//check for fundamental frequency overflow or the note number is out of bounds
	if(frequency > MAX_FREQUENCY || (note_number < 0 || note_number > 127))
    1804:	e35b007f 	cmp	r11, #127	; 0x7f
    1808:	9afffe49 	bls	1134 <get_note_wave+0x130>
    180c:	eafffe44 	b	1124 <get_note_wave+0x120>
	//update the allocated space
	cache_line->allocated_length = new_length;
}

//returns a dynamically allocated array representing the wave intensity of each sample for the note
struct MusicWave get_note_wave(struct MusicNote music_note){
    1810:	e3a02000 	mov	r2, #0
    1814:	eaffffc5 	b	1730 <get_note_wave+0x72c>
    1818:	e7950009 	ldr	r0, [r5, r9]
    181c:	eaffffd0 	b	1764 <get_note_wave+0x760>

00001820 <get_chord_wave>:
	
	return number + (octave * 12);
}

//returns a dynamically allocated array representing the wave intensity of each sample for the chord
struct MusicWave get_chord_wave(struct MusicChord music_chord){
    1820:	e24dd008 	sub	sp, sp, #8
    1824:	e92d4ff0 	push	{r4, r5, r6, r7, r8, r9, r10, r11, lr}
    1828:	e24dd044 	sub	sp, sp, #68	; 0x44
    182c:	e28d1064 	add	r1, sp, #100	; 0x64
    1830:	e58d0034 	str	r0, [sp, #52]	; 0x34
    1834:	e981000c 	stmib	r1, {r2, r3}
	//find the number of samples for the duration given
	unsigned int number_of_samples = (unsigned int) floor(music_chord.duration * sampling_frequency);
    1838:	e3a03901 	mov	r3, #16384	; 0x4000
    183c:	e3a02000 	mov	r2, #0
    1840:	e34430bf 	movt	r3, #16575	; 0x40bf
    1844:	e1cd07d0 	ldrd	r0, [sp, #112]	; 0x70
    1848:	eb00110f 	bl	5c8c <__aeabi_dmul>
    184c:	eb0002bd 	bl	2348 <floor>
    1850:	eb00129c 	bl	62c8 <__aeabi_d2uiz>
    1854:	e59dc078 	ldr	r12, [sp, #120]	; 0x78
    1858:	e58d0030 	str	r0, [sp, #48]	; 0x30
	
	//the full wave of all notes summed together
	double * wave_array = malloc(number_of_samples * sizeof(double));
    185c:	e1a00180 	lsl	r0, r0, #3
    1860:	e58dc02c 	str	r12, [sp, #44]	; 0x2c
    1864:	eb0012c5 	bl	6380 <malloc>
	
	//initialize the wave array to zero
	for(unsigned int i = 0; i < number_of_samples; i++){
    1868:	e59dc030 	ldr	r12, [sp, #48]	; 0x30
struct MusicWave get_chord_wave(struct MusicChord music_chord){
	//find the number of samples for the duration given
	unsigned int number_of_samples = (unsigned int) floor(music_chord.duration * sampling_frequency);
	
	//the full wave of all notes summed together
	double * wave_array = malloc(number_of_samples * sizeof(double));
    186c:	e58d0028 	str	r0, [sp, #40]	; 0x28
	
	//initialize the wave array to zero
	for(unsigned int i = 0; i < number_of_samples; i++){
    1870:	e35c0000 	cmp	r12, #0
    1874:	0a00001b 	beq	18e8 <get_chord_wave+0xc8>
    1878:	e35c0004 	cmp	r12, #4
	
	return number + (octave * 12);
}

//returns a dynamically allocated array representing the wave intensity of each sample for the chord
struct MusicWave get_chord_wave(struct MusicChord music_chord){
    187c:	e24c5003 	sub	r5, r12, #3
    1880:	9a00006b 	bls	1a34 <get_chord_wave+0x214>
    1884:	e59d0028 	ldr	r0, [sp, #40]	; 0x28
    1888:	e3a0c000 	mov	r12, #0
	//the full wave of all notes summed together
	double * wave_array = malloc(number_of_samples * sizeof(double));
	
	//initialize the wave array to zero
	for(unsigned int i = 0; i < number_of_samples; i++){
		wave_array[i] = 0;
    188c:	e3a02000 	mov	r2, #0
    1890:	e3a03000 	mov	r3, #0
    1894:	e28c4005 	add	r4, r12, #5
    1898:	f5d0f0e8 	pld	[r0, #232]	; 0xe8
    189c:	e1540005 	cmp	r4, r5
    18a0:	e1c020f0 	strd	r2, [r0]
    18a4:	e1c020f8 	strd	r2, [r0, #8]
	
	//the full wave of all notes summed together
	double * wave_array = malloc(number_of_samples * sizeof(double));
	
	//initialize the wave array to zero
	for(unsigned int i = 0; i < number_of_samples; i++){
    18a8:	e28c1004 	add	r1, r12, #4
    18ac:	e2800020 	add	r0, r0, #32
    18b0:	e1a0c001 	mov	r12, r1
		wave_array[i] = 0;
    18b4:	e14021f0 	strd	r2, [r0, #-16]
    18b8:	e14020f8 	strd	r2, [r0, #-8]
    18bc:	3afffff4 	bcc	1894 <get_chord_wave+0x74>
	
	return number + (octave * 12);
}

//returns a dynamically allocated array representing the wave intensity of each sample for the chord
struct MusicWave get_chord_wave(struct MusicChord music_chord){
    18c0:	e59dc028 	ldr	r12, [sp, #40]	; 0x28
    18c4:	e2410001 	sub	r0, r1, #1
	//the full wave of all notes summed together
	double * wave_array = malloc(number_of_samples * sizeof(double));
	
	//initialize the wave array to zero
	for(unsigned int i = 0; i < number_of_samples; i++){
		wave_array[i] = 0;
    18c8:	e3a02000 	mov	r2, #0
    18cc:	e3a03000 	mov	r3, #0
	
	return number + (octave * 12);
}

//returns a dynamically allocated array representing the wave intensity of each sample for the chord
struct MusicWave get_chord_wave(struct MusicChord music_chord){
    18d0:	e08c0180 	add	r0, r12, r0, lsl #3
    18d4:	e59dc030 	ldr	r12, [sp, #48]	; 0x30
	
	//the full wave of all notes summed together
	double * wave_array = malloc(number_of_samples * sizeof(double));
	
	//initialize the wave array to zero
	for(unsigned int i = 0; i < number_of_samples; i++){
    18d8:	e2811001 	add	r1, r1, #1
		wave_array[i] = 0;
    18dc:	e1e020f8 	strd	r2, [r0, #8]!
	
	//the full wave of all notes summed together
	double * wave_array = malloc(number_of_samples * sizeof(double));
	
	//initialize the wave array to zero
	for(unsigned int i = 0; i < number_of_samples; i++){
    18e0:	e15c0001 	cmp	r12, r1
    18e4:	8afffffb 	bhi	18d8 <get_chord_wave+0xb8>
		wave_array[i] = 0;
	}
	
	//generate the music wave for each individual note and sum together
	struct MusicWave note_wave;
	for(unsigned int i = 0; i < music_chord.num_notes; i++){
    18e8:	e59dc02c 	ldr	r12, [sp, #44]	; 0x2c
    18ec:	e35c0000 	cmp	r12, #0
    18f0:	0a000043 	beq	1a04 <get_chord_wave+0x1e4>
    18f4:	e59da068 	ldr	r10, [sp, #104]	; 0x68
    18f8:	e3a0c000 	mov	r12, #0
    18fc:	e58dc024 	str	r12, [sp, #36]	; 0x24
		note_wave = get_note_wave(music_chord.music_notes[i]);
    1900:	e28ae008 	add	lr, r10, #8
    1904:	e1a0c00d 	mov	r12, sp
    1908:	e8be000f 	ldm	lr!, {r0, r1, r2, r3}
    190c:	e8ac000f 	stmia	r12!, {r0, r1, r2, r3}
    1910:	e89e000f 	ldm	lr, {r0, r1, r2, r3}
    1914:	e88c000f 	stm	r12, {r0, r1, r2, r3}
    1918:	e28d0038 	add	r0, sp, #56	; 0x38
    191c:	e89a000c 	ldm	r10, {r2, r3}
    1920:	ebfffdb7 	bl	1004 <get_note_wave>
    1924:	e59d703c 	ldr	r7, [sp, #60]	; 0x3c
    1928:	e59d9038 	ldr	r9, [sp, #56]	; 0x38
		
		for(unsigned int j = 0; j < note_wave.length; j++){
    192c:	e3570000 	cmp	r7, #0
    1930:	0a000029 	beq	19dc <get_chord_wave+0x1bc>
    1934:	e3570004 	cmp	r7, #4
	
	return number + (octave * 12);
}

//returns a dynamically allocated array representing the wave intensity of each sample for the chord
struct MusicWave get_chord_wave(struct MusicChord music_chord){
    1938:	e2478003 	sub	r8, r7, #3
    193c:	9a00003a 	bls	1a2c <get_chord_wave+0x20c>
    1940:	e59dc028 	ldr	r12, [sp, #40]	; 0x28
    1944:	e1a06009 	mov	r6, r9
    1948:	e3a0b000 	mov	r11, #0
    194c:	e28c4080 	add	r4, r12, #128	; 0x80
	struct MusicWave note_wave;
	for(unsigned int i = 0; i < music_chord.num_notes; i++){
		note_wave = get_note_wave(music_chord.music_notes[i]);
		
		for(unsigned int j = 0; j < note_wave.length; j++){
			wave_array[j] += note_wave.waveform[j];
    1950:	e1c620d0 	ldrd	r2, [r6]
    1954:	e2866020 	add	r6, r6, #32
    1958:	e14408d0 	ldrd	r0, [r4, #-128]	; 0xffffff80
    195c:	f5d4f000 	pld	[r4]
    1960:	eb000fc5 	bl	587c <__adddf3>
    1964:	e14408f0 	strd	r0, [r4, #-128]	; 0xffffff80
    1968:	e2844020 	add	r4, r4, #32
    196c:	e14409d8 	ldrd	r0, [r4, #-152]	; 0xffffff68
	//generate the music wave for each individual note and sum together
	struct MusicWave note_wave;
	for(unsigned int i = 0; i < music_chord.num_notes; i++){
		note_wave = get_note_wave(music_chord.music_notes[i]);
		
		for(unsigned int j = 0; j < note_wave.length; j++){
    1970:	e28b5004 	add	r5, r11, #4
			wave_array[j] += note_wave.waveform[j];
    1974:	e14621d8 	ldrd	r2, [r6, #-24]	; 0xffffffe8
    1978:	e28bb005 	add	r11, r11, #5
    197c:	eb000fbe 	bl	587c <__adddf3>
    1980:	e14409f8 	strd	r0, [r4, #-152]	; 0xffffff68
    1984:	e14409d0 	ldrd	r0, [r4, #-144]	; 0xffffff70
    1988:	e14621d0 	ldrd	r2, [r6, #-16]
    198c:	eb000fba 	bl	587c <__adddf3>
    1990:	e14409f0 	strd	r0, [r4, #-144]	; 0xffffff70
    1994:	e14408d8 	ldrd	r0, [r4, #-136]	; 0xffffff78
    1998:	e14620d8 	ldrd	r2, [r6, #-8]
    199c:	eb000fb6 	bl	587c <__adddf3>
    19a0:	e158000b 	cmp	r8, r11
    19a4:	e14408f8 	strd	r0, [r4, #-136]	; 0xffffff78
	//generate the music wave for each individual note and sum together
	struct MusicWave note_wave;
	for(unsigned int i = 0; i < music_chord.num_notes; i++){
		note_wave = get_note_wave(music_chord.music_notes[i]);
		
		for(unsigned int j = 0; j < note_wave.length; j++){
    19a8:	e1a0b005 	mov	r11, r5
    19ac:	8affffe7 	bhi	1950 <get_chord_wave+0x130>
	
	return number + (octave * 12);
}

//returns a dynamically allocated array representing the wave intensity of each sample for the chord
struct MusicWave get_chord_wave(struct MusicChord music_chord){
    19b0:	e59dc028 	ldr	r12, [sp, #40]	; 0x28
    19b4:	e2456001 	sub	r6, r5, #1
    19b8:	e0896186 	add	r6, r9, r6, lsl #3
    19bc:	e08c4185 	add	r4, r12, r5, lsl #3
	struct MusicWave note_wave;
	for(unsigned int i = 0; i < music_chord.num_notes; i++){
		note_wave = get_note_wave(music_chord.music_notes[i]);
		
		for(unsigned int j = 0; j < note_wave.length; j++){
			wave_array[j] += note_wave.waveform[j];
    19c0:	e1c400d0 	ldrd	r0, [r4]
	//generate the music wave for each individual note and sum together
	struct MusicWave note_wave;
	for(unsigned int i = 0; i < music_chord.num_notes; i++){
		note_wave = get_note_wave(music_chord.music_notes[i]);
		
		for(unsigned int j = 0; j < note_wave.length; j++){
    19c4:	e2855001 	add	r5, r5, #1
			wave_array[j] += note_wave.waveform[j];
    19c8:	e1e620d8 	ldrd	r2, [r6, #8]!
    19cc:	eb000faa 	bl	587c <__adddf3>
	//generate the music wave for each individual note and sum together
	struct MusicWave note_wave;
	for(unsigned int i = 0; i < music_chord.num_notes; i++){
		note_wave = get_note_wave(music_chord.music_notes[i]);
		
		for(unsigned int j = 0; j < note_wave.length; j++){
    19d0:	e1570005 	cmp	r7, r5
			wave_array[j] += note_wave.waveform[j];
    19d4:	e0c400f8 	strd	r0, [r4], #8
	//generate the music wave for each individual note and sum together
	struct MusicWave note_wave;
	for(unsigned int i = 0; i < music_chord.num_notes; i++){
		note_wave = get_note_wave(music_chord.music_notes[i]);
		
		for(unsigned int j = 0; j < note_wave.length; j++){
    19d8:	8afffff8 	bhi	19c0 <get_chord_wave+0x1a0>
		wave_array[i] = 0;
	}
	
	//generate the music wave for each individual note and sum together
	struct MusicWave note_wave;
	for(unsigned int i = 0; i < music_chord.num_notes; i++){
    19dc:	e59dc024 	ldr	r12, [sp, #36]	; 0x24
		
		for(unsigned int j = 0; j < note_wave.length; j++){
			wave_array[j] += note_wave.waveform[j];
		}
		
		free(note_wave.waveform);
    19e0:	e1a00009 	mov	r0, r9
    19e4:	e28aa028 	add	r10, r10, #40	; 0x28
		wave_array[i] = 0;
	}
	
	//generate the music wave for each individual note and sum together
	struct MusicWave note_wave;
	for(unsigned int i = 0; i < music_chord.num_notes; i++){
    19e8:	e28cc001 	add	r12, r12, #1
    19ec:	e58dc024 	str	r12, [sp, #36]	; 0x24
		
		for(unsigned int j = 0; j < note_wave.length; j++){
			wave_array[j] += note_wave.waveform[j];
		}
		
		free(note_wave.waveform);
    19f0:	eb00126a 	bl	63a0 <free>
		wave_array[i] = 0;
	}
	
	//generate the music wave for each individual note and sum together
	struct MusicWave note_wave;
	for(unsigned int i = 0; i < music_chord.num_notes; i++){
    19f4:	e59dc024 	ldr	r12, [sp, #36]	; 0x24
    19f8:	e59d102c 	ldr	r1, [sp, #44]	; 0x2c
    19fc:	e15c0001 	cmp	r12, r1
    1a00:	1affffbe 	bne	1900 <get_chord_wave+0xe0>
		
		free(note_wave.waveform);
	}

	struct MusicWave wave = {.waveform = wave_array, .length = number_of_samples};
	return wave;
    1a04:	e59d1034 	ldr	r1, [sp, #52]	; 0x34
    1a08:	e59dc028 	ldr	r12, [sp, #40]	; 0x28
}
    1a0c:	e1a00001 	mov	r0, r1
		
		free(note_wave.waveform);
	}

	struct MusicWave wave = {.waveform = wave_array, .length = number_of_samples};
	return wave;
    1a10:	e581c000 	str	r12, [r1]
    1a14:	e59dc030 	ldr	r12, [sp, #48]	; 0x30
    1a18:	e581c004 	str	r12, [r1, #4]
}
    1a1c:	e28dd044 	add	sp, sp, #68	; 0x44
    1a20:	e8bd4ff0 	pop	{r4, r5, r6, r7, r8, r9, r10, r11, lr}
    1a24:	e28dd008 	add	sp, sp, #8
    1a28:	e12fff1e 	bx	lr
	
	return number + (octave * 12);
}

//returns a dynamically allocated array representing the wave intensity of each sample for the chord
struct MusicWave get_chord_wave(struct MusicChord music_chord){
    1a2c:	e3a05000 	mov	r5, #0
    1a30:	eaffffde 	b	19b0 <get_chord_wave+0x190>
    1a34:	e3a01000 	mov	r1, #0
    1a38:	eaffffa0 	b	18c0 <get_chord_wave+0xa0>

00001a3c <initialize_stream>:

struct AudioStream audio_stream;
extern const double sampling_period;

//initializes the stream assuming the current song is correct
void initialize_stream(){
    1a3c:	e92d45f8 	push	{r3, r4, r5, r6, r7, r8, r10, lr}
	//allocate memory for the stream
	audio_stream.current_playback_locations = malloc(sizeof(unsigned int) * audio_stream.current_song->num_tracks);
    1a40:	e3034cac 	movw	r4, #15532	; 0x3cac
    1a44:	e3404015 	movt	r4, #21
    1a48:	e5943014 	ldr	r3, [r4, #20]
    1a4c:	e593a004 	ldr	r10, [r3, #4]
    1a50:	e1a0510a 	lsl	r5, r10, #2
    1a54:	e1a00005 	mov	r0, r5
    1a58:	eb001248 	bl	6380 <malloc>
    1a5c:	e1a06000 	mov	r6, r0
	audio_stream.current_process_locations = malloc(sizeof(unsigned int) * audio_stream.current_song->num_tracks);
    1a60:	e1a00005 	mov	r0, r5
extern const double sampling_period;

//initializes the stream assuming the current song is correct
void initialize_stream(){
	//allocate memory for the stream
	audio_stream.current_playback_locations = malloc(sizeof(unsigned int) * audio_stream.current_song->num_tracks);
    1a64:	e5846000 	str	r6, [r4]
	audio_stream.current_process_locations = malloc(sizeof(unsigned int) * audio_stream.current_song->num_tracks);
    1a68:	eb001244 	bl	6380 <malloc>
    1a6c:	e1a07000 	mov	r7, r0
	
	audio_stream.queue_fronts = malloc(sizeof(struct MusicWaveNode *) * audio_stream.current_song->num_tracks);
    1a70:	e1a00005 	mov	r0, r5

//initializes the stream assuming the current song is correct
void initialize_stream(){
	//allocate memory for the stream
	audio_stream.current_playback_locations = malloc(sizeof(unsigned int) * audio_stream.current_song->num_tracks);
	audio_stream.current_process_locations = malloc(sizeof(unsigned int) * audio_stream.current_song->num_tracks);
    1a74:	e5847004 	str	r7, [r4, #4]
	
	audio_stream.queue_fronts = malloc(sizeof(struct MusicWaveNode *) * audio_stream.current_song->num_tracks);
    1a78:	eb001240 	bl	6380 <malloc>
    1a7c:	e1a08000 	mov	r8, r0
	audio_stream.queue_backs = malloc(sizeof(struct MusicWaveNode *) * audio_stream.current_song->num_tracks);
    1a80:	e1a00005 	mov	r0, r5
void initialize_stream(){
	//allocate memory for the stream
	audio_stream.current_playback_locations = malloc(sizeof(unsigned int) * audio_stream.current_song->num_tracks);
	audio_stream.current_process_locations = malloc(sizeof(unsigned int) * audio_stream.current_song->num_tracks);
	
	audio_stream.queue_fronts = malloc(sizeof(struct MusicWaveNode *) * audio_stream.current_song->num_tracks);
    1a84:	e5848008 	str	r8, [r4, #8]
	audio_stream.queue_backs = malloc(sizeof(struct MusicWaveNode *) * audio_stream.current_song->num_tracks);
    1a88:	eb00123c 	bl	6380 <malloc>
    1a8c:	e584000c 	str	r0, [r4, #12]
	
	audio_stream.durations = malloc(sizeof(double) * audio_stream.current_song->num_tracks);
    1a90:	e1a0018a 	lsl	r0, r10, #3
    1a94:	eb001239 	bl	6380 <malloc>
	
	//initialize all variables
	for(unsigned int i = 0; i < audio_stream.current_song->num_tracks; i++){
    1a98:	e35a0000 	cmp	r10, #0
	audio_stream.current_process_locations = malloc(sizeof(unsigned int) * audio_stream.current_song->num_tracks);
	
	audio_stream.queue_fronts = malloc(sizeof(struct MusicWaveNode *) * audio_stream.current_song->num_tracks);
	audio_stream.queue_backs = malloc(sizeof(struct MusicWaveNode *) * audio_stream.current_song->num_tracks);
	
	audio_stream.durations = malloc(sizeof(double) * audio_stream.current_song->num_tracks);
    1a9c:	e5840010 	str	r0, [r4, #16]
	
	//initialize all variables
	for(unsigned int i = 0; i < audio_stream.current_song->num_tracks; i++){
    1aa0:	08bd85f8 	popeq	{r3, r4, r5, r6, r7, r8, r10, pc}
    1aa4:	e3a01000 	mov	r1, #0
		audio_stream.current_playback_locations[i] = 0;
		audio_stream.current_process_locations[i] = 0;
		
		audio_stream.queue_fronts[i] = NULL;
		audio_stream.queue_backs[i] = NULL;
    1aa8:	e1a05004 	mov	r5, r4
	
	audio_stream.durations = malloc(sizeof(double) * audio_stream.current_song->num_tracks);
	
	//initialize all variables
	for(unsigned int i = 0; i < audio_stream.current_song->num_tracks; i++){
		audio_stream.current_playback_locations[i] = 0;
    1aac:	e1a0c001 	mov	r12, r1
		audio_stream.current_process_locations[i] = 0;
		
		audio_stream.queue_fronts[i] = NULL;
		audio_stream.queue_backs[i] = NULL;
		
		audio_stream.durations[i] = 0;
    1ab0:	e3a02000 	mov	r2, #0
    1ab4:	e3a03000 	mov	r3, #0
	
	audio_stream.durations = malloc(sizeof(double) * audio_stream.current_song->num_tracks);
	
	//initialize all variables
	for(unsigned int i = 0; i < audio_stream.current_song->num_tracks; i++){
		audio_stream.current_playback_locations[i] = 0;
    1ab8:	e786c101 	str	r12, [r6, r1, lsl #2]
		audio_stream.current_process_locations[i] = 0;
		
		audio_stream.queue_fronts[i] = NULL;
		audio_stream.queue_backs[i] = NULL;
		
		audio_stream.durations[i] = 0;
    1abc:	e1a06181 	lsl	r6, r1, #3
	audio_stream.durations = malloc(sizeof(double) * audio_stream.current_song->num_tracks);
	
	//initialize all variables
	for(unsigned int i = 0; i < audio_stream.current_song->num_tracks; i++){
		audio_stream.current_playback_locations[i] = 0;
		audio_stream.current_process_locations[i] = 0;
    1ac0:	e787c101 	str	r12, [r7, r1, lsl #2]
		
		audio_stream.queue_fronts[i] = NULL;
    1ac4:	e788c101 	str	r12, [r8, r1, lsl #2]
		audio_stream.queue_backs[i] = NULL;
    1ac8:	e594000c 	ldr	r0, [r4, #12]
    1acc:	e780c101 	str	r12, [r0, r1, lsl #2]
	audio_stream.queue_backs = malloc(sizeof(struct MusicWaveNode *) * audio_stream.current_song->num_tracks);
	
	audio_stream.durations = malloc(sizeof(double) * audio_stream.current_song->num_tracks);
	
	//initialize all variables
	for(unsigned int i = 0; i < audio_stream.current_song->num_tracks; i++){
    1ad0:	e2811001 	add	r1, r1, #1
    1ad4:	e5940014 	ldr	r0, [r4, #20]
		audio_stream.current_process_locations[i] = 0;
		
		audio_stream.queue_fronts[i] = NULL;
		audio_stream.queue_backs[i] = NULL;
		
		audio_stream.durations[i] = 0;
    1ad8:	e5947010 	ldr	r7, [r4, #16]
	audio_stream.queue_backs = malloc(sizeof(struct MusicWaveNode *) * audio_stream.current_song->num_tracks);
	
	audio_stream.durations = malloc(sizeof(double) * audio_stream.current_song->num_tracks);
	
	//initialize all variables
	for(unsigned int i = 0; i < audio_stream.current_song->num_tracks; i++){
    1adc:	e5900004 	ldr	r0, [r0, #4]
		audio_stream.current_process_locations[i] = 0;
		
		audio_stream.queue_fronts[i] = NULL;
		audio_stream.queue_backs[i] = NULL;
		
		audio_stream.durations[i] = 0;
    1ae0:	e18720f6 	strd	r2, [r7, r6]
	audio_stream.queue_backs = malloc(sizeof(struct MusicWaveNode *) * audio_stream.current_song->num_tracks);
	
	audio_stream.durations = malloc(sizeof(double) * audio_stream.current_song->num_tracks);
	
	//initialize all variables
	for(unsigned int i = 0; i < audio_stream.current_song->num_tracks; i++){
    1ae4:	e1500001 	cmp	r0, r1
    1ae8:	98bd85f8 	popls	{r3, r4, r5, r6, r7, r8, r10, pc}
    1aec:	e89501c0 	ldm	r5, {r6, r7, r8}
    1af0:	eafffff0 	b	1ab8 <initialize_stream+0x7c>

00001af4 <deconstruct_stream>:
		audio_stream.durations[i] = 0;
	}
}

//deconstructs the stream and frees all memory allocated
void deconstruct_stream(){
    1af4:	e92d4010 	push	{r4, lr}
	//assumes all queues have been cleared already
	free(audio_stream.current_playback_locations);
    1af8:	e3034cac 	movw	r4, #15532	; 0x3cac
    1afc:	e3404015 	movt	r4, #21
    1b00:	e5940000 	ldr	r0, [r4]
    1b04:	eb001225 	bl	63a0 <free>
	free(audio_stream.current_process_locations);
    1b08:	e5940004 	ldr	r0, [r4, #4]
    1b0c:	eb001223 	bl	63a0 <free>
	free(audio_stream.queue_fronts);
    1b10:	e5940008 	ldr	r0, [r4, #8]
    1b14:	eb001221 	bl	63a0 <free>
	free(audio_stream.queue_backs);
    1b18:	e594000c 	ldr	r0, [r4, #12]
    1b1c:	eb00121f 	bl	63a0 <free>
	free(audio_stream.durations);
    1b20:	e5940010 	ldr	r0, [r4, #16]
}
    1b24:	e8bd4010 	pop	{r4, lr}
	//assumes all queues have been cleared already
	free(audio_stream.current_playback_locations);
	free(audio_stream.current_process_locations);
	free(audio_stream.queue_fronts);
	free(audio_stream.queue_backs);
	free(audio_stream.durations);
    1b28:	ea00121c 	b	63a0 <free>

00001b2c <populate_stream>:
}

//finds the next valid track with least processed time
unsigned int get_next_processed_track(){
	unsigned int shortest_duration_index = 0;
	for(unsigned int i = 1; i < audio_stream.current_song->num_tracks; i++){
    1b2c:	e3032cac 	movw	r2, #15532	; 0x3cac
	free(audio_stream.queue_backs);
	free(audio_stream.durations);
}

//processes one chord of the shortest duration track
void populate_stream(){
    1b30:	e92d4ff0 	push	{r4, r5, r6, r7, r8, r9, r10, r11, lr}
}

//finds the next valid track with least processed time
unsigned int get_next_processed_track(){
	unsigned int shortest_duration_index = 0;
	for(unsigned int i = 1; i < audio_stream.current_song->num_tracks; i++){
    1b34:	e3402015 	movt	r2, #21
	free(audio_stream.queue_backs);
	free(audio_stream.durations);
}

//processes one chord of the shortest duration track
void populate_stream(){
    1b38:	e24dd03c 	sub	sp, sp, #60	; 0x3c
}

//finds the next valid track with least processed time
unsigned int get_next_processed_track(){
	unsigned int shortest_duration_index = 0;
	for(unsigned int i = 1; i < audio_stream.current_song->num_tracks; i++){
    1b3c:	e5923014 	ldr	r3, [r2, #20]
    1b40:	e58d2014 	str	r2, [sp, #20]
    1b44:	e5938004 	ldr	r8, [r3, #4]
    1b48:	e3580001 	cmp	r8, #1
    1b4c:	9a00005b 	bls	1cc0 <populate_stream+0x194>
    1b50:	e5939000 	ldr	r9, [r3]
	return true;
}

//finds the next valid track with least processed time
unsigned int get_next_processed_track(){
	unsigned int shortest_duration_index = 0;
    1b54:	e3a06000 	mov	r6, #0
    1b58:	e59d3014 	ldr	r3, [sp, #20]
	for(unsigned int i = 1; i < audio_stream.current_song->num_tracks; i++){
    1b5c:	e3a04001 	mov	r4, #1
	free(audio_stream.queue_backs);
	free(audio_stream.durations);
}

//processes one chord of the shortest duration track
void populate_stream(){
    1b60:	e289500c 	add	r5, r9, #12
    1b64:	e593b004 	ldr	r11, [r3, #4]
//finds the next valid track with least processed time
unsigned int get_next_processed_track(){
	unsigned int shortest_duration_index = 0;
	for(unsigned int i = 1; i < audio_stream.current_song->num_tracks; i++){
		if(!is_track_fully_processed(i)
			&& (audio_stream.durations[i] < audio_stream.durations[shortest_duration_index] || is_track_fully_processed(shortest_duration_index))){
    1b68:	e593a010 	ldr	r10, [r3, #16]
    1b6c:	e1a0700b 	mov	r7, r11

//finds the next valid track with least processed time
unsigned int get_next_processed_track(){
	unsigned int shortest_duration_index = 0;
	for(unsigned int i = 1; i < audio_stream.current_song->num_tracks; i++){
		if(!is_track_fully_processed(i)
    1b70:	e5953008 	ldr	r3, [r5, #8]
			&& (audio_stream.durations[i] < audio_stream.durations[shortest_duration_index] || is_track_fully_processed(shortest_duration_index))){
    1b74:	e1a02186 	lsl	r2, r6, #3
	
	return false;
}

bool is_track_fully_processed(unsigned int track_num){
	return audio_stream.current_process_locations[track_num] >= audio_stream.current_song->music_tracks[track_num].length;
    1b78:	e5b71004 	ldr	r1, [r7, #4]!
	free(audio_stream.queue_backs);
	free(audio_stream.durations);
}

//processes one chord of the shortest duration track
void populate_stream(){
    1b7c:	e1a00184 	lsl	r0, r4, #3
    1b80:	f5d5f05c 	pld	[r5, #92]	; 0x5c

//finds the next valid track with least processed time
unsigned int get_next_processed_track(){
	unsigned int shortest_duration_index = 0;
	for(unsigned int i = 1; i < audio_stream.current_song->num_tracks; i++){
		if(!is_track_fully_processed(i)
    1b84:	e1510003 	cmp	r1, r3
    1b88:	2a00000b 	bcs	1bbc <populate_stream+0x90>
			&& (audio_stream.durations[i] < audio_stream.durations[shortest_duration_index] || is_track_fully_processed(shortest_duration_index))){
    1b8c:	e18220da 	ldrd	r2, [r2, r10]
    1b90:	e18000da 	ldrd	r0, [r0, r10]
    1b94:	eb00119c 	bl	620c <__aeabi_dcmplt>
	
	return false;
}

bool is_track_fully_processed(unsigned int track_num){
	return audio_stream.current_process_locations[track_num] >= audio_stream.current_song->music_tracks[track_num].length;
    1b98:	e0863086 	add	r3, r6, r6, lsl #1
//finds the next valid track with least processed time
unsigned int get_next_processed_track(){
	unsigned int shortest_duration_index = 0;
	for(unsigned int i = 1; i < audio_stream.current_song->num_tracks; i++){
		if(!is_track_fully_processed(i)
			&& (audio_stream.durations[i] < audio_stream.durations[shortest_duration_index] || is_track_fully_processed(shortest_duration_index))){
    1b9c:	e3500000 	cmp	r0, #0
    1ba0:	11a06004 	movne	r6, r4
	
	return false;
}

bool is_track_fully_processed(unsigned int track_num){
	return audio_stream.current_process_locations[track_num] >= audio_stream.current_song->music_tracks[track_num].length;
    1ba4:	e0893103 	add	r3, r9, r3, lsl #2
//finds the next valid track with least processed time
unsigned int get_next_processed_track(){
	unsigned int shortest_duration_index = 0;
	for(unsigned int i = 1; i < audio_stream.current_song->num_tracks; i++){
		if(!is_track_fully_processed(i)
			&& (audio_stream.durations[i] < audio_stream.durations[shortest_duration_index] || is_track_fully_processed(shortest_duration_index))){
    1ba8:	1a000003 	bne	1bbc <populate_stream+0x90>
    1bac:	e79b2106 	ldr	r2, [r11, r6, lsl #2]
    1bb0:	e5933008 	ldr	r3, [r3, #8]
    1bb4:	e1520003 	cmp	r2, r3
    1bb8:	21a06004 	movcs	r6, r4
}

//finds the next valid track with least processed time
unsigned int get_next_processed_track(){
	unsigned int shortest_duration_index = 0;
	for(unsigned int i = 1; i < audio_stream.current_song->num_tracks; i++){
    1bbc:	e2844001 	add	r4, r4, #1
    1bc0:	e285500c 	add	r5, r5, #12
    1bc4:	e1540008 	cmp	r4, r8
    1bc8:	1affffe8 	bne	1b70 <populate_stream+0x44>
    1bcc:	e0863086 	add	r3, r6, r6, lsl #1
    1bd0:	e1a07106 	lsl	r7, r6, #2
    1bd4:	e1a03103 	lsl	r3, r3, #2
//processes one chord of the shortest duration track
void populate_stream(){
	unsigned int i = get_next_processed_track();
	
	//retrieve the current track
	struct MusicTrack current_track = audio_stream.current_song->music_tracks[i];
    1bd8:	e0891003 	add	r1, r9, r3
	
	//check to make sure there is more song left for the respective track
	if(audio_stream.current_process_locations[i] >= current_track.length) return;
    1bdc:	e79b2007 	ldr	r2, [r11, r7]
    1be0:	e5911008 	ldr	r1, [r1, #8]
//processes one chord of the shortest duration track
void populate_stream(){
	unsigned int i = get_next_processed_track();
	
	//retrieve the current track
	struct MusicTrack current_track = audio_stream.current_song->music_tracks[i];
    1be4:	e7993003 	ldr	r3, [r9, r3]
	
	//check to make sure there is more song left for the respective track
	if(audio_stream.current_process_locations[i] >= current_track.length) return;
    1be8:	e1520001 	cmp	r2, r1
    1bec:	3a000001 	bcc	1bf8 <populate_stream+0xcc>
	//increment the location to be the next chord to be processed
	audio_stream.current_process_locations[i]++;
	
	//increase the duration of the audio stream by the duration of the chord just processed
	audio_stream.durations[i] += current_chord.duration;
}
    1bf0:	e28dd03c 	add	sp, sp, #60	; 0x3c
    1bf4:	e8bd8ff0 	pop	{r4, r5, r6, r7, r8, r9, r10, r11, pc}
	
	//check to make sure there is more song left for the respective track
	if(audio_stream.current_process_locations[i] >= current_track.length) return;
	
	//retrieve the current chord
	struct MusicChord current_chord = current_track.music_chords[audio_stream.current_process_locations[i]];
    1bf8:	e0822082 	add	r2, r2, r2, lsl #1
    1bfc:	e28dc020 	add	r12, sp, #32
	
	//add a new node to the back of the respective queue
	struct MusicWaveNode * node = malloc(sizeof(struct MusicWaveNode));
	
	node->wave = get_chord_wave(current_chord);
    1c00:	e28d8018 	add	r8, sp, #24
	
	//increment the location to be the next chord to be processed
	audio_stream.current_process_locations[i]++;
	
	//increase the duration of the audio stream by the duration of the chord just processed
	audio_stream.durations[i] += current_chord.duration;
    1c04:	e1a06186 	lsl	r6, r6, #3
	
	//check to make sure there is more song left for the respective track
	if(audio_stream.current_process_locations[i] >= current_track.length) return;
	
	//retrieve the current chord
	struct MusicChord current_chord = current_track.music_chords[audio_stream.current_process_locations[i]];
    1c08:	e0833182 	add	r3, r3, r2, lsl #3
    1c0c:	e1a0e003 	mov	lr, r3
    1c10:	e1c340d8 	ldrd	r4, [r3, #8]
    1c14:	e8be000f 	ldm	lr!, {r0, r1, r2, r3}
    1c18:	e8ac000f 	stmia	r12!, {r0, r1, r2, r3}
    1c1c:	e89e0003 	ldm	lr, {r0, r1}
    1c20:	e88c0003 	stm	r12, {r0, r1}
	
	//add a new node to the back of the respective queue
	struct MusicWaveNode * node = malloc(sizeof(struct MusicWaveNode));
    1c24:	e3a0000c 	mov	r0, #12
    1c28:	eb0011d4 	bl	6380 <malloc>
	
	node->wave = get_chord_wave(current_chord);
    1c2c:	e28de038 	add	lr, sp, #56	; 0x38
	
	//retrieve the current chord
	struct MusicChord current_chord = current_track.music_chords[audio_stream.current_process_locations[i]];
	
	//add a new node to the back of the respective queue
	struct MusicWaveNode * node = malloc(sizeof(struct MusicWaveNode));
    1c30:	e1a09000 	mov	r9, r0
	
	node->wave = get_chord_wave(current_chord);
    1c34:	e1cd42f8 	strd	r4, [sp, #40]	; 0x28
    1c38:	e28dc020 	add	r12, sp, #32
    1c3c:	e91e000f 	ldmdb	lr, {r0, r1, r2, r3}
    1c40:	e88d000f 	stm	sp, {r0, r1, r2, r3}
    1c44:	e1a00008 	mov	r0, r8
    1c48:	e89c000c 	ldm	r12, {r2, r3}
    1c4c:	ebfffef3 	bl	1820 <get_chord_wave>
	node->next = NULL;
	
	//append the node to the back of the queue
	if(audio_stream.queue_backs[i] != NULL)
    1c50:	e59d2014 	ldr	r2, [sp, #20]
	struct MusicChord current_chord = current_track.music_chords[audio_stream.current_process_locations[i]];
	
	//add a new node to the back of the respective queue
	struct MusicWaveNode * node = malloc(sizeof(struct MusicWaveNode));
	
	node->wave = get_chord_wave(current_chord);
    1c54:	e8980003 	ldm	r8, {r0, r1}
		audio_stream.queue_backs[i]->next = node;
	
	audio_stream.queue_backs[i] = node;
	
	//if the front of the list is null, the added node is also the front of the list
	if(audio_stream.queue_fronts[i] == NULL) audio_stream.queue_fronts[i] = node;
    1c58:	e59de014 	ldr	lr, [sp, #20]
	
	node->wave = get_chord_wave(current_chord);
	node->next = NULL;
	
	//append the node to the back of the queue
	if(audio_stream.queue_backs[i] != NULL)
    1c5c:	e592300c 	ldr	r3, [r2, #12]
	
	//add a new node to the back of the respective queue
	struct MusicWaveNode * node = malloc(sizeof(struct MusicWaveNode));
	
	node->wave = get_chord_wave(current_chord);
	node->next = NULL;
    1c60:	e3a02000 	mov	r2, #0
    1c64:	e5892008 	str	r2, [r9, #8]
	struct MusicChord current_chord = current_track.music_chords[audio_stream.current_process_locations[i]];
	
	//add a new node to the back of the respective queue
	struct MusicWaveNode * node = malloc(sizeof(struct MusicWaveNode));
	
	node->wave = get_chord_wave(current_chord);
    1c68:	e8890003 	stm	r9, {r0, r1}
	node->next = NULL;
	
	//append the node to the back of the queue
	if(audio_stream.queue_backs[i] != NULL)
    1c6c:	e0832007 	add	r2, r3, r7
    1c70:	e7933007 	ldr	r3, [r3, r7]
    1c74:	e3530000 	cmp	r3, #0
		audio_stream.queue_backs[i]->next = node;
    1c78:	15839008 	strne	r9, [r3, #8]
	
	audio_stream.queue_backs[i] = node;
    1c7c:	e5829000 	str	r9, [r2]
	
	//if the front of the list is null, the added node is also the front of the list
	if(audio_stream.queue_fronts[i] == NULL) audio_stream.queue_fronts[i] = node;
    1c80:	e59e3008 	ldr	r3, [lr, #8]
    1c84:	e7932007 	ldr	r2, [r3, r7]
    1c88:	e3520000 	cmp	r2, #0
	
	//increment the location to be the next chord to be processed
	audio_stream.current_process_locations[i]++;
    1c8c:	e59d2014 	ldr	r2, [sp, #20]
		audio_stream.queue_backs[i]->next = node;
	
	audio_stream.queue_backs[i] = node;
	
	//if the front of the list is null, the added node is also the front of the list
	if(audio_stream.queue_fronts[i] == NULL) audio_stream.queue_fronts[i] = node;
    1c90:	07839007 	streq	r9, [r3, r7]
	
	//increment the location to be the next chord to be processed
	audio_stream.current_process_locations[i]++;
	
	//increase the duration of the audio stream by the duration of the chord just processed
	audio_stream.durations[i] += current_chord.duration;
    1c94:	e1a03005 	mov	r3, r5
	
	//if the front of the list is null, the added node is also the front of the list
	if(audio_stream.queue_fronts[i] == NULL) audio_stream.queue_fronts[i] = node;
	
	//increment the location to be the next chord to be processed
	audio_stream.current_process_locations[i]++;
    1c98:	e592c004 	ldr	r12, [r2, #4]
	
	//increase the duration of the audio stream by the duration of the chord just processed
	audio_stream.durations[i] += current_chord.duration;
    1c9c:	e5928010 	ldr	r8, [r2, #16]
    1ca0:	e1a02004 	mov	r2, r4
	
	//if the front of the list is null, the added node is also the front of the list
	if(audio_stream.queue_fronts[i] == NULL) audio_stream.queue_fronts[i] = node;
	
	//increment the location to be the next chord to be processed
	audio_stream.current_process_locations[i]++;
    1ca4:	e79ce007 	ldr	lr, [r12, r7]
	
	//increase the duration of the audio stream by the duration of the chord just processed
	audio_stream.durations[i] += current_chord.duration;
    1ca8:	e18800d6 	ldrd	r0, [r8, r6]
	
	//if the front of the list is null, the added node is also the front of the list
	if(audio_stream.queue_fronts[i] == NULL) audio_stream.queue_fronts[i] = node;
	
	//increment the location to be the next chord to be processed
	audio_stream.current_process_locations[i]++;
    1cac:	e28ee001 	add	lr, lr, #1
    1cb0:	e78ce007 	str	lr, [r12, r7]
	
	//increase the duration of the audio stream by the duration of the chord just processed
	audio_stream.durations[i] += current_chord.duration;
    1cb4:	eb000ef0 	bl	587c <__adddf3>
    1cb8:	e18800f6 	strd	r0, [r8, r6]
    1cbc:	eaffffcb 	b	1bf0 <populate_stream+0xc4>
}

//finds the next valid track with least processed time
unsigned int get_next_processed_track(){
	unsigned int shortest_duration_index = 0;
	for(unsigned int i = 1; i < audio_stream.current_song->num_tracks; i++){
    1cc0:	e3a07000 	mov	r7, #0
    1cc4:	e5939000 	ldr	r9, [r3]
    1cc8:	e592b004 	ldr	r11, [r2, #4]
    1ccc:	e1a03007 	mov	r3, r7
	return true;
}

//finds the next valid track with least processed time
unsigned int get_next_processed_track(){
	unsigned int shortest_duration_index = 0;
    1cd0:	e1a06007 	mov	r6, r7
    1cd4:	eaffffbf 	b	1bd8 <populate_stream+0xac>

00001cd8 <clear_stream>:
	//increase the duration of the audio stream by the duration of the chord just processed
	audio_stream.durations[i] += current_chord.duration;
}

//clears the stream but keeps the current song the same
void clear_stream(){
    1cd8:	e92d4ff8 	push	{r3, r4, r5, r6, r7, r8, r9, r10, r11, lr}
	for(unsigned int i = 0; i < audio_stream.current_song->num_tracks; i++){
    1cdc:	e303bcac 	movw	r11, #15532	; 0x3cac
    1ce0:	e340b015 	movt	r11, #21
    1ce4:	e59b3014 	ldr	r3, [r11, #20]
    1ce8:	e5933004 	ldr	r3, [r3, #4]
    1cec:	e3530000 	cmp	r3, #0
    1cf0:	08bd8ff8 	popeq	{r3, r4, r5, r6, r7, r8, r9, r10, r11, pc}
    1cf4:	e3a08000 	mov	r8, #0
		
		//set all other variables pertaining to the respective track to zero
		audio_stream.queue_backs[i] = NULL;
		audio_stream.current_playback_locations[i] = 0;
		audio_stream.current_process_locations[i] = 0;
		audio_stream.durations[i] = 0;
    1cf8:	e3a04000 	mov	r4, #0
    1cfc:	e3a05000 	mov	r5, #0
		//advance the stream to the end
		while(audio_stream.queue_fronts[i] != NULL)
			advance_stream(&audio_stream.queue_fronts[i]);
		
		//set all other variables pertaining to the respective track to zero
		audio_stream.queue_backs[i] = NULL;
    1d00:	e1a0a008 	mov	r10, r8

//clears the stream but keeps the current song the same
void clear_stream(){
	for(unsigned int i = 0; i < audio_stream.current_song->num_tracks; i++){
		//advance the stream to the end
		while(audio_stream.queue_fronts[i] != NULL)
    1d04:	e59b6008 	ldr	r6, [r11, #8]
    1d08:	e1a07108 	lsl	r7, r8, #2
    1d0c:	e7963108 	ldr	r3, [r6, r8, lsl #2]
    1d10:	e0866007 	add	r6, r6, r7
    1d14:	e3530000 	cmp	r3, #0
    1d18:	0a00000a 	beq	1d48 <clear_stream+0x70>
	}
}

void advance_stream(struct MusicWaveNode ** front_node){
	//save a copy of the pointer to the next node
	struct MusicWaveNode * next_node = (*front_node)->next;
    1d1c:	e5939008 	ldr	r9, [r3, #8]
	
	//free the memory from both the waveform and the node
	free((*front_node)->wave.waveform);
    1d20:	e5930000 	ldr	r0, [r3]
    1d24:	eb00119d 	bl	63a0 <free>
	free(*front_node);
    1d28:	e5960000 	ldr	r0, [r6]
    1d2c:	eb00119b 	bl	63a0 <free>
	
	//reattach the rest of the queue to the front
	*front_node = next_node;
    1d30:	e5869000 	str	r9, [r6]

//clears the stream but keeps the current song the same
void clear_stream(){
	for(unsigned int i = 0; i < audio_stream.current_song->num_tracks; i++){
		//advance the stream to the end
		while(audio_stream.queue_fronts[i] != NULL)
    1d34:	e59b6008 	ldr	r6, [r11, #8]
    1d38:	e7963007 	ldr	r3, [r6, r7]
    1d3c:	e0866007 	add	r6, r6, r7
    1d40:	e3530000 	cmp	r3, #0
    1d44:	1afffff4 	bne	1d1c <clear_stream+0x44>
			advance_stream(&audio_stream.queue_fronts[i]);
		
		//set all other variables pertaining to the respective track to zero
		audio_stream.queue_backs[i] = NULL;
    1d48:	e59b200c 	ldr	r2, [r11, #12]
		audio_stream.current_playback_locations[i] = 0;
		audio_stream.current_process_locations[i] = 0;
		audio_stream.durations[i] = 0;
    1d4c:	e1a03188 	lsl	r3, r8, #3
	audio_stream.durations[i] += current_chord.duration;
}

//clears the stream but keeps the current song the same
void clear_stream(){
	for(unsigned int i = 0; i < audio_stream.current_song->num_tracks; i++){
    1d50:	e2888001 	add	r8, r8, #1
		//advance the stream to the end
		while(audio_stream.queue_fronts[i] != NULL)
			advance_stream(&audio_stream.queue_fronts[i]);
		
		//set all other variables pertaining to the respective track to zero
		audio_stream.queue_backs[i] = NULL;
    1d54:	e782a007 	str	r10, [r2, r7]
	audio_stream.durations[i] += current_chord.duration;
}

//clears the stream but keeps the current song the same
void clear_stream(){
	for(unsigned int i = 0; i < audio_stream.current_song->num_tracks; i++){
    1d58:	e59b2014 	ldr	r2, [r11, #20]
			advance_stream(&audio_stream.queue_fronts[i]);
		
		//set all other variables pertaining to the respective track to zero
		audio_stream.queue_backs[i] = NULL;
		audio_stream.current_playback_locations[i] = 0;
		audio_stream.current_process_locations[i] = 0;
    1d5c:	e89b0003 	ldm	r11, {r0, r1}
		while(audio_stream.queue_fronts[i] != NULL)
			advance_stream(&audio_stream.queue_fronts[i]);
		
		//set all other variables pertaining to the respective track to zero
		audio_stream.queue_backs[i] = NULL;
		audio_stream.current_playback_locations[i] = 0;
    1d60:	e780a007 	str	r10, [r0, r7]
		audio_stream.current_process_locations[i] = 0;
    1d64:	e781a007 	str	r10, [r1, r7]
	audio_stream.durations[i] += current_chord.duration;
}

//clears the stream but keeps the current song the same
void clear_stream(){
	for(unsigned int i = 0; i < audio_stream.current_song->num_tracks; i++){
    1d68:	e5921004 	ldr	r1, [r2, #4]
		
		//set all other variables pertaining to the respective track to zero
		audio_stream.queue_backs[i] = NULL;
		audio_stream.current_playback_locations[i] = 0;
		audio_stream.current_process_locations[i] = 0;
		audio_stream.durations[i] = 0;
    1d6c:	e59b2010 	ldr	r2, [r11, #16]
	audio_stream.durations[i] += current_chord.duration;
}

//clears the stream but keeps the current song the same
void clear_stream(){
	for(unsigned int i = 0; i < audio_stream.current_song->num_tracks; i++){
    1d70:	e1510008 	cmp	r1, r8
		
		//set all other variables pertaining to the respective track to zero
		audio_stream.queue_backs[i] = NULL;
		audio_stream.current_playback_locations[i] = 0;
		audio_stream.current_process_locations[i] = 0;
		audio_stream.durations[i] = 0;
    1d74:	e18240f3 	strd	r4, [r2, r3]
	audio_stream.durations[i] += current_chord.duration;
}

//clears the stream but keeps the current song the same
void clear_stream(){
	for(unsigned int i = 0; i < audio_stream.current_song->num_tracks; i++){
    1d78:	8affffe1 	bhi	1d04 <clear_stream+0x2c>
    1d7c:	e8bd8ff8 	pop	{r3, r4, r5, r6, r7, r8, r9, r10, r11, pc}

00001d80 <advance_stream>:
		audio_stream.current_process_locations[i] = 0;
		audio_stream.durations[i] = 0;
	}
}

void advance_stream(struct MusicWaveNode ** front_node){
    1d80:	e92d4038 	push	{r3, r4, r5, lr}
    1d84:	e1a04000 	mov	r4, r0
	//save a copy of the pointer to the next node
	struct MusicWaveNode * next_node = (*front_node)->next;
    1d88:	e5903000 	ldr	r3, [r0]
    1d8c:	e5935008 	ldr	r5, [r3, #8]
	
	//free the memory from both the waveform and the node
	free((*front_node)->wave.waveform);
    1d90:	e5930000 	ldr	r0, [r3]
    1d94:	eb001181 	bl	63a0 <free>
	free(*front_node);
    1d98:	e5940000 	ldr	r0, [r4]
    1d9c:	eb00117f 	bl	63a0 <free>
	
	//reattach the rest of the queue to the front
	*front_node = next_node;
    1da0:	e5845000 	str	r5, [r4]
    1da4:	e8bd8038 	pop	{r3, r4, r5, pc}

00001da8 <is_stream_valid>:
}

bool is_stream_valid(){
	//stream is invalid if any one of the queues are empty and the track for that queue is not fully processed yet
	for(unsigned int i = 0; i < audio_stream.current_song->num_tracks; i++){
    1da8:	e3033cac 	movw	r3, #15532	; 0x3cac
	
	//reattach the rest of the queue to the front
	*front_node = next_node;
}

bool is_stream_valid(){
    1dac:	e92d01f0 	push	{r4, r5, r6, r7, r8}
	//stream is invalid if any one of the queues are empty and the track for that queue is not fully processed yet
	for(unsigned int i = 0; i < audio_stream.current_song->num_tracks; i++){
    1db0:	e3403015 	movt	r3, #21
    1db4:	e5937014 	ldr	r7, [r3, #20]
    1db8:	e597c004 	ldr	r12, [r7, #4]
    1dbc:	e35c0000 	cmp	r12, #0
    1dc0:	0a00001f 	beq	1e44 <is_stream_valid+0x9c>
	
	return false;
}

bool is_track_fully_processed(unsigned int track_num){
	return audio_stream.current_process_locations[track_num] >= audio_stream.current_song->music_tracks[track_num].length;
    1dc4:	e3a01000 	mov	r1, #0
    1dc8:	e5934008 	ldr	r4, [r3, #8]
    1dcc:	e5938004 	ldr	r8, [r3, #4]
	*front_node = next_node;
}

bool is_stream_valid(){
	//stream is invalid if any one of the queues are empty and the track for that queue is not fully processed yet
	for(unsigned int i = 0; i < audio_stream.current_song->num_tracks; i++){
    1dd0:	e1a02001 	mov	r2, r1
	
	return false;
}

bool is_track_fully_processed(unsigned int track_num){
	return audio_stream.current_process_locations[track_num] >= audio_stream.current_song->music_tracks[track_num].length;
    1dd4:	e1a03001 	mov	r3, r1
    1dd8:	ea000003 	b	1dec <is_stream_valid+0x44>
	*front_node = next_node;
}

bool is_stream_valid(){
	//stream is invalid if any one of the queues are empty and the track for that queue is not fully processed yet
	for(unsigned int i = 0; i < audio_stream.current_song->num_tracks; i++){
    1ddc:	e152000c 	cmp	r2, r12
    1de0:	e2833004 	add	r3, r3, #4
    1de4:	e281100c 	add	r1, r1, #12
    1de8:	0a00000b 	beq	1e1c <is_stream_valid+0x74>
		if(audio_stream.queue_fronts[i] == NULL && !is_track_fully_processed(i)) return false;
    1dec:	e7940003 	ldr	r0, [r4, r3]
	*front_node = next_node;
}

bool is_stream_valid(){
	//stream is invalid if any one of the queues are empty and the track for that queue is not fully processed yet
	for(unsigned int i = 0; i < audio_stream.current_song->num_tracks; i++){
    1df0:	e2822001 	add	r2, r2, #1
		if(audio_stream.queue_fronts[i] == NULL && !is_track_fully_processed(i)) return false;
    1df4:	e3500000 	cmp	r0, #0
    1df8:	1afffff7 	bne	1ddc <is_stream_valid+0x34>
	
	return false;
}

bool is_track_fully_processed(unsigned int track_num){
	return audio_stream.current_process_locations[track_num] >= audio_stream.current_song->music_tracks[track_num].length;
    1dfc:	e5975000 	ldr	r5, [r7]
}

bool is_stream_valid(){
	//stream is invalid if any one of the queues are empty and the track for that queue is not fully processed yet
	for(unsigned int i = 0; i < audio_stream.current_song->num_tracks; i++){
		if(audio_stream.queue_fronts[i] == NULL && !is_track_fully_processed(i)) return false;
    1e00:	e7986003 	ldr	r6, [r8, r3]
	
	return false;
}

bool is_track_fully_processed(unsigned int track_num){
	return audio_stream.current_process_locations[track_num] >= audio_stream.current_song->music_tracks[track_num].length;
    1e04:	e0855001 	add	r5, r5, r1
}

bool is_stream_valid(){
	//stream is invalid if any one of the queues are empty and the track for that queue is not fully processed yet
	for(unsigned int i = 0; i < audio_stream.current_song->num_tracks; i++){
		if(audio_stream.queue_fronts[i] == NULL && !is_track_fully_processed(i)) return false;
    1e08:	e5955008 	ldr	r5, [r5, #8]
    1e0c:	e1560005 	cmp	r6, r5
    1e10:	2afffff1 	bcs	1ddc <is_stream_valid+0x34>
	for(unsigned int i = 0; i < audio_stream.current_song->num_tracks; i++){
		if(audio_stream.queue_fronts[i] != NULL) return true;
	}
	
	return false;
}
    1e14:	e8bd01f0 	pop	{r4, r5, r6, r7, r8}
    1e18:	e12fff1e 	bx	lr
		if(audio_stream.queue_fronts[i] == NULL && !is_track_fully_processed(i)) return false;
	}
	
	//or if all the queues are empty
	for(unsigned int i = 0; i < audio_stream.current_song->num_tracks; i++){
		if(audio_stream.queue_fronts[i] != NULL) return true;
    1e1c:	e5943000 	ldr	r3, [r4]
    1e20:	e3530000 	cmp	r3, #0
    1e24:	0a000003 	beq	1e38 <is_stream_valid+0x90>
    1e28:	ea000007 	b	1e4c <is_stream_valid+0xa4>
    1e2c:	e5b42004 	ldr	r2, [r4, #4]!
    1e30:	e3520000 	cmp	r2, #0
    1e34:	1a000004 	bne	1e4c <is_stream_valid+0xa4>
	for(unsigned int i = 0; i < audio_stream.current_song->num_tracks; i++){
		if(audio_stream.queue_fronts[i] == NULL && !is_track_fully_processed(i)) return false;
	}
	
	//or if all the queues are empty
	for(unsigned int i = 0; i < audio_stream.current_song->num_tracks; i++){
    1e38:	e2833001 	add	r3, r3, #1
    1e3c:	e153000c 	cmp	r3, r12
    1e40:	1afffff9 	bne	1e2c <is_stream_valid+0x84>
		if(audio_stream.queue_fronts[i] != NULL) return true;
	}
	
	return false;
    1e44:	e3a00000 	mov	r0, #0
    1e48:	eafffff1 	b	1e14 <is_stream_valid+0x6c>
		if(audio_stream.queue_fronts[i] == NULL && !is_track_fully_processed(i)) return false;
	}
	
	//or if all the queues are empty
	for(unsigned int i = 0; i < audio_stream.current_song->num_tracks; i++){
		if(audio_stream.queue_fronts[i] != NULL) return true;
    1e4c:	e3a00001 	mov	r0, #1
    1e50:	eaffffef 	b	1e14 <is_stream_valid+0x6c>

00001e54 <is_track_fully_processed>:
	
	return false;
}

bool is_track_fully_processed(unsigned int track_num){
	return audio_stream.current_process_locations[track_num] >= audio_stream.current_song->music_tracks[track_num].length;
    1e54:	e3033cac 	movw	r3, #15532	; 0x3cac
    1e58:	e0802080 	add	r2, r0, r0, lsl #1
    1e5c:	e3403015 	movt	r3, #21
    1e60:	e593c014 	ldr	r12, [r3, #20]
    1e64:	e5931004 	ldr	r1, [r3, #4]
    1e68:	e59c3000 	ldr	r3, [r12]
    1e6c:	e7910100 	ldr	r0, [r1, r0, lsl #2]
    1e70:	e0833102 	add	r3, r3, r2, lsl #2
    1e74:	e5933008 	ldr	r3, [r3, #8]
}
    1e78:	e1500003 	cmp	r0, r3
    1e7c:	33a00000 	movcc	r0, #0
    1e80:	23a00001 	movcs	r0, #1
    1e84:	e12fff1e 	bx	lr

00001e88 <is_stream_fully_processed>:

bool is_stream_fully_processed(){
	for(unsigned int i = 0; i < audio_stream.current_song->num_tracks; i++){
    1e88:	e3033cac 	movw	r3, #15532	; 0x3cac

bool is_track_fully_processed(unsigned int track_num){
	return audio_stream.current_process_locations[track_num] >= audio_stream.current_song->music_tracks[track_num].length;
}

bool is_stream_fully_processed(){
    1e8c:	e52d4004 	push	{r4}		; (str r4, [sp, #-4]!)
	for(unsigned int i = 0; i < audio_stream.current_song->num_tracks; i++){
    1e90:	e3403015 	movt	r3, #21
    1e94:	e5932014 	ldr	r2, [r3, #20]
    1e98:	e5924004 	ldr	r4, [r2, #4]
    1e9c:	e3540000 	cmp	r4, #0
    1ea0:	0a00000f 	beq	1ee4 <is_stream_fully_processed+0x5c>
	
	return false;
}

bool is_track_fully_processed(unsigned int track_num){
	return audio_stream.current_process_locations[track_num] >= audio_stream.current_song->music_tracks[track_num].length;
    1ea4:	e5931004 	ldr	r1, [r3, #4]
    1ea8:	e5922000 	ldr	r2, [r2]
}

bool is_stream_fully_processed(){
	for(unsigned int i = 0; i < audio_stream.current_song->num_tracks; i++){
		if(!is_track_fully_processed(i))
    1eac:	e5910000 	ldr	r0, [r1]
    1eb0:	e5923008 	ldr	r3, [r2, #8]
    1eb4:	e1500003 	cmp	r0, r3
    1eb8:	3a00000c 	bcc	1ef0 <is_stream_fully_processed+0x68>
bool is_track_fully_processed(unsigned int track_num){
	return audio_stream.current_process_locations[track_num] >= audio_stream.current_song->music_tracks[track_num].length;
}

bool is_stream_fully_processed(){
	for(unsigned int i = 0; i < audio_stream.current_song->num_tracks; i++){
    1ebc:	e3a03000 	mov	r3, #0
    1ec0:	ea000003 	b	1ed4 <is_stream_fully_processed+0x4c>
	
	return false;
}

bool is_track_fully_processed(unsigned int track_num){
	return audio_stream.current_process_locations[track_num] >= audio_stream.current_song->music_tracks[track_num].length;
    1ec4:	e5b1c004 	ldr	r12, [r1, #4]!
}

bool is_stream_fully_processed(){
	for(unsigned int i = 0; i < audio_stream.current_song->num_tracks; i++){
		if(!is_track_fully_processed(i))
    1ec8:	e5920008 	ldr	r0, [r2, #8]
    1ecc:	e15c0000 	cmp	r12, r0
    1ed0:	3a000006 	bcc	1ef0 <is_stream_fully_processed+0x68>
bool is_track_fully_processed(unsigned int track_num){
	return audio_stream.current_process_locations[track_num] >= audio_stream.current_song->music_tracks[track_num].length;
}

bool is_stream_fully_processed(){
	for(unsigned int i = 0; i < audio_stream.current_song->num_tracks; i++){
    1ed4:	e2833001 	add	r3, r3, #1
    1ed8:	e282200c 	add	r2, r2, #12
    1edc:	e1530004 	cmp	r3, r4
    1ee0:	1afffff7 	bne	1ec4 <is_stream_fully_processed+0x3c>
		if(!is_track_fully_processed(i))
			return false;
	}
	
	return true;
    1ee4:	e3a00001 	mov	r0, #1
}
    1ee8:	e8bd0010 	ldmfd	sp!, {r4}
    1eec:	e12fff1e 	bx	lr
}

bool is_stream_fully_processed(){
	for(unsigned int i = 0; i < audio_stream.current_song->num_tracks; i++){
		if(!is_track_fully_processed(i))
			return false;
    1ef0:	e3a00000 	mov	r0, #0
    1ef4:	eafffffb 	b	1ee8 <is_stream_fully_processed+0x60>

00001ef8 <get_next_processed_track>:
	
	return true;
}

//finds the next valid track with least processed time
unsigned int get_next_processed_track(){
    1ef8:	e92d4ff8 	push	{r3, r4, r5, r6, r7, r8, r9, r10, r11, lr}
	unsigned int shortest_duration_index = 0;
	for(unsigned int i = 1; i < audio_stream.current_song->num_tracks; i++){
    1efc:	e3033cac 	movw	r3, #15532	; 0x3cac
    1f00:	e3403015 	movt	r3, #21
    1f04:	e5932014 	ldr	r2, [r3, #20]
    1f08:	e5928004 	ldr	r8, [r2, #4]
    1f0c:	e3580001 	cmp	r8, #1
    1f10:	9a00001f 	bls	1f94 <get_next_processed_track+0x9c>
    1f14:	e5939004 	ldr	r9, [r3, #4]
    1f18:	e3a04001 	mov	r4, #1
    1f1c:	e592a000 	ldr	r10, [r2]
	return true;
}

//finds the next valid track with least processed time
unsigned int get_next_processed_track(){
	unsigned int shortest_duration_index = 0;
    1f20:	e3a06000 	mov	r6, #0
	for(unsigned int i = 1; i < audio_stream.current_song->num_tracks; i++){
		if(!is_track_fully_processed(i)
			&& (audio_stream.durations[i] < audio_stream.durations[shortest_duration_index] || is_track_fully_processed(shortest_duration_index))){
    1f24:	e593b010 	ldr	r11, [r3, #16]
    1f28:	e1a07009 	mov	r7, r9
	
	return true;
}

//finds the next valid track with least processed time
unsigned int get_next_processed_track(){
    1f2c:	e28a500c 	add	r5, r10, #12
	unsigned int shortest_duration_index = 0;
	for(unsigned int i = 1; i < audio_stream.current_song->num_tracks; i++){
		if(!is_track_fully_processed(i)
    1f30:	e5953008 	ldr	r3, [r5, #8]
			&& (audio_stream.durations[i] < audio_stream.durations[shortest_duration_index] || is_track_fully_processed(shortest_duration_index))){
    1f34:	e1a0c186 	lsl	r12, r6, #3
	
	return false;
}

bool is_track_fully_processed(unsigned int track_num){
	return audio_stream.current_process_locations[track_num] >= audio_stream.current_song->music_tracks[track_num].length;
    1f38:	e5b72004 	ldr	r2, [r7, #4]!
	
	return true;
}

//finds the next valid track with least processed time
unsigned int get_next_processed_track(){
    1f3c:	e1a01184 	lsl	r1, r4, #3
    1f40:	f5d5f05c 	pld	[r5, #92]	; 0x5c
	unsigned int shortest_duration_index = 0;
	for(unsigned int i = 1; i < audio_stream.current_song->num_tracks; i++){
		if(!is_track_fully_processed(i)
    1f44:	e1520003 	cmp	r2, r3
    1f48:	2a00000b 	bcs	1f7c <get_next_processed_track+0x84>
			&& (audio_stream.durations[i] < audio_stream.durations[shortest_duration_index] || is_track_fully_processed(shortest_duration_index))){
    1f4c:	e18b20dc 	ldrd	r2, [r11, r12]
    1f50:	e18100db 	ldrd	r0, [r1, r11]
    1f54:	eb0010ac 	bl	620c <__aeabi_dcmplt>
	
	return false;
}

bool is_track_fully_processed(unsigned int track_num){
	return audio_stream.current_process_locations[track_num] >= audio_stream.current_song->music_tracks[track_num].length;
    1f58:	e0863086 	add	r3, r6, r6, lsl #1
//finds the next valid track with least processed time
unsigned int get_next_processed_track(){
	unsigned int shortest_duration_index = 0;
	for(unsigned int i = 1; i < audio_stream.current_song->num_tracks; i++){
		if(!is_track_fully_processed(i)
			&& (audio_stream.durations[i] < audio_stream.durations[shortest_duration_index] || is_track_fully_processed(shortest_duration_index))){
    1f5c:	e3500000 	cmp	r0, #0
    1f60:	11a06004 	movne	r6, r4
	
	return false;
}

bool is_track_fully_processed(unsigned int track_num){
	return audio_stream.current_process_locations[track_num] >= audio_stream.current_song->music_tracks[track_num].length;
    1f64:	e08a3103 	add	r3, r10, r3, lsl #2
//finds the next valid track with least processed time
unsigned int get_next_processed_track(){
	unsigned int shortest_duration_index = 0;
	for(unsigned int i = 1; i < audio_stream.current_song->num_tracks; i++){
		if(!is_track_fully_processed(i)
			&& (audio_stream.durations[i] < audio_stream.durations[shortest_duration_index] || is_track_fully_processed(shortest_duration_index))){
    1f68:	1a000003 	bne	1f7c <get_next_processed_track+0x84>
    1f6c:	e7992106 	ldr	r2, [r9, r6, lsl #2]
    1f70:	e5933008 	ldr	r3, [r3, #8]
    1f74:	e1520003 	cmp	r2, r3
    1f78:	21a06004 	movcs	r6, r4
}

//finds the next valid track with least processed time
unsigned int get_next_processed_track(){
	unsigned int shortest_duration_index = 0;
	for(unsigned int i = 1; i < audio_stream.current_song->num_tracks; i++){
    1f7c:	e2844001 	add	r4, r4, #1
    1f80:	e285500c 	add	r5, r5, #12
    1f84:	e1540008 	cmp	r4, r8
    1f88:	1affffe8 	bne	1f30 <get_next_processed_track+0x38>
			shortest_duration_index = i;
		}
	}
	
	return shortest_duration_index;
}
    1f8c:	e1a00006 	mov	r0, r6
    1f90:	e8bd8ff8 	pop	{r3, r4, r5, r6, r7, r8, r9, r10, r11, pc}
	return true;
}

//finds the next valid track with least processed time
unsigned int get_next_processed_track(){
	unsigned int shortest_duration_index = 0;
    1f94:	e3a06000 	mov	r6, #0
    1f98:	eafffffb 	b	1f8c <get_next_processed_track+0x94>

00001f9c <get_time_left>:
	
	return shortest_duration_index;
}

//finds the track with the least processed time if still processing or most processed time if finished processing and returns the duration of it
double get_time_left(){
    1f9c:	e92d4ff0 	push	{r4, r5, r6, r7, r8, r9, r10, r11, lr}
bool is_track_fully_processed(unsigned int track_num){
	return audio_stream.current_process_locations[track_num] >= audio_stream.current_song->music_tracks[track_num].length;
}

bool is_stream_fully_processed(){
	for(unsigned int i = 0; i < audio_stream.current_song->num_tracks; i++){
    1fa0:	e3034cac 	movw	r4, #15532	; 0x3cac
    1fa4:	e3404015 	movt	r4, #21
	
	return shortest_duration_index;
}

//finds the track with the least processed time if still processing or most processed time if finished processing and returns the duration of it
double get_time_left(){
    1fa8:	e24dd014 	sub	sp, sp, #20
bool is_track_fully_processed(unsigned int track_num){
	return audio_stream.current_process_locations[track_num] >= audio_stream.current_song->music_tracks[track_num].length;
}

bool is_stream_fully_processed(){
	for(unsigned int i = 0; i < audio_stream.current_song->num_tracks; i++){
    1fac:	e5943014 	ldr	r3, [r4, #20]
    1fb0:	e593b004 	ldr	r11, [r3, #4]
    1fb4:	e35b0000 	cmp	r11, #0
    1fb8:	0a000085 	beq	21d4 <get_time_left+0x238>
	
	return false;
}

bool is_track_fully_processed(unsigned int track_num){
	return audio_stream.current_process_locations[track_num] >= audio_stream.current_song->music_tracks[track_num].length;
    1fbc:	e5940004 	ldr	r0, [r4, #4]
    1fc0:	e5935000 	ldr	r5, [r3]
}

bool is_stream_fully_processed(){
	for(unsigned int i = 0; i < audio_stream.current_song->num_tracks; i++){
		if(!is_track_fully_processed(i))
    1fc4:	e5902000 	ldr	r2, [r0]
    1fc8:	e5953008 	ldr	r3, [r5, #8]
	
	return false;
}

bool is_track_fully_processed(unsigned int track_num){
	return audio_stream.current_process_locations[track_num] >= audio_stream.current_song->music_tracks[track_num].length;
    1fcc:	e58d0008 	str	r0, [sp, #8]
}

bool is_stream_fully_processed(){
	for(unsigned int i = 0; i < audio_stream.current_song->num_tracks; i++){
		if(!is_track_fully_processed(i))
    1fd0:	e1520003 	cmp	r2, r3
    1fd4:	21a01000 	movcs	r1, r0
    1fd8:	21a02005 	movcs	r2, r5
    1fdc:	23a03000 	movcs	r3, #0
    1fe0:	2a000004 	bcs	1ff8 <get_time_left+0x5c>
    1fe4:	ea000052 	b	2134 <get_time_left+0x198>
	
	return false;
}

bool is_track_fully_processed(unsigned int track_num){
	return audio_stream.current_process_locations[track_num] >= audio_stream.current_song->music_tracks[track_num].length;
    1fe8:	e5b1c004 	ldr	r12, [r1, #4]!
}

bool is_stream_fully_processed(){
	for(unsigned int i = 0; i < audio_stream.current_song->num_tracks; i++){
		if(!is_track_fully_processed(i))
    1fec:	e5920008 	ldr	r0, [r2, #8]
    1ff0:	e15c0000 	cmp	r12, r0
    1ff4:	3a00004e 	bcc	2134 <get_time_left+0x198>
bool is_track_fully_processed(unsigned int track_num){
	return audio_stream.current_process_locations[track_num] >= audio_stream.current_song->music_tracks[track_num].length;
}

bool is_stream_fully_processed(){
	for(unsigned int i = 0; i < audio_stream.current_song->num_tracks; i++){
    1ff8:	e2833001 	add	r3, r3, #1
    1ffc:	e282200c 	add	r2, r2, #12
    2000:	e153000b 	cmp	r3, r11
    2004:	1afffff7 	bne	1fe8 <get_time_left+0x4c>

//finds the track with the least processed time if still processing or most processed time if finished processing and returns the duration of it
double get_time_left(){
	unsigned int track_index = 0;
	if(is_stream_fully_processed()){
		for(unsigned int i = 1; i < audio_stream.current_song->num_tracks; i++){
    2008:	e3530001 	cmp	r3, #1
    200c:	0a000070 	beq	21d4 <get_time_left+0x238>
    2010:	e5944010 	ldr	r4, [r4, #16]
    2014:	e35b0005 	cmp	r11, #5
	
	return shortest_duration_index;
}

//finds the track with the least processed time if still processing or most processed time if finished processing and returns the duration of it
double get_time_left(){
    2018:	e24b9003 	sub	r9, r11, #3
    201c:	93a05001 	movls	r5, #1
    2020:	e58d4000 	str	r4, [sp]
    2024:	e1c460d0 	ldrd	r6, [r4]
    2028:	9a00002c 	bls	20e0 <get_time_left+0x144>
    202c:	e1a08004 	mov	r8, r4
    2030:	e3a0a001 	mov	r10, #1
	unsigned int track_index = 0;
	if(is_stream_fully_processed()){
		for(unsigned int i = 1; i < audio_stream.current_song->num_tracks; i++){
			if(audio_stream.durations[i] > audio_stream.durations[track_index]){
    2034:	e1c840d8 	ldrd	r4, [r8, #8]
    2038:	e1a02006 	mov	r2, r6
    203c:	e1a03007 	mov	r3, r7
    2040:	f5d8f0c0 	pld	[r8, #192]	; 0xc0
    2044:	e2888020 	add	r8, r8, #32
    2048:	e1a01005 	mov	r1, r5
    204c:	e1a00004 	mov	r0, r4
    2050:	eb00107f 	bl	6254 <__aeabi_dcmpgt>
    2054:	e3500000 	cmp	r0, #0
    2058:	11a06004 	movne	r6, r4
    205c:	11a07005 	movne	r7, r5
    2060:	e14841d0 	ldrd	r4, [r8, #-16]
    2064:	e1a02006 	mov	r2, r6
    2068:	e1a03007 	mov	r3, r7
    206c:	e1a01005 	mov	r1, r5
    2070:	e1a00004 	mov	r0, r4
    2074:	eb001076 	bl	6254 <__aeabi_dcmpgt>
    2078:	e3500000 	cmp	r0, #0
    207c:	11a06004 	movne	r6, r4
    2080:	11a07005 	movne	r7, r5
    2084:	e14840d8 	ldrd	r4, [r8, #-8]
    2088:	e1a01007 	mov	r1, r7
    208c:	e1a00006 	mov	r0, r6
    2090:	e1a02004 	mov	r2, r4
    2094:	e1a03005 	mov	r3, r5
    2098:	eb00105b 	bl	620c <__aeabi_dcmplt>
    209c:	e3500000 	cmp	r0, #0
    20a0:	11a06004 	movne	r6, r4
    20a4:	11a07005 	movne	r7, r5
    20a8:	e1c840d0 	ldrd	r4, [r8]
    20ac:	e1a00006 	mov	r0, r6
    20b0:	e1a01007 	mov	r1, r7
    20b4:	e1a03005 	mov	r3, r5
    20b8:	e1a02004 	mov	r2, r4
    20bc:	eb001052 	bl	620c <__aeabi_dcmplt>
    20c0:	e28a3005 	add	r3, r10, #5
    20c4:	e3500000 	cmp	r0, #0
    20c8:	11a07005 	movne	r7, r5
    20cc:	11a06004 	movne	r6, r4
    20d0:	e1590003 	cmp	r9, r3

//finds the track with the least processed time if still processing or most processed time if finished processing and returns the duration of it
double get_time_left(){
	unsigned int track_index = 0;
	if(is_stream_fully_processed()){
		for(unsigned int i = 1; i < audio_stream.current_song->num_tracks; i++){
    20d4:	e28a5004 	add	r5, r10, #4
    20d8:	e1a0a005 	mov	r10, r5
    20dc:	8affffd4 	bhi	2034 <get_time_left+0x98>
	
	return shortest_duration_index;
}

//finds the track with the least processed time if still processing or most processed time if finished processing and returns the duration of it
double get_time_left(){
    20e0:	e59d1000 	ldr	r1, [sp]
    20e4:	e2454001 	sub	r4, r5, #1
    20e8:	e0814184 	add	r4, r1, r4, lsl #3
	unsigned int track_index = 0;
	if(is_stream_fully_processed()){
		for(unsigned int i = 1; i < audio_stream.current_song->num_tracks; i++){
			if(audio_stream.durations[i] > audio_stream.durations[track_index]){
    20ec:	e1e480d8 	ldrd	r8, [r4, #8]!
    20f0:	e1a02006 	mov	r2, r6
    20f4:	e1a03007 	mov	r3, r7

//finds the track with the least processed time if still processing or most processed time if finished processing and returns the duration of it
double get_time_left(){
	unsigned int track_index = 0;
	if(is_stream_fully_processed()){
		for(unsigned int i = 1; i < audio_stream.current_song->num_tracks; i++){
    20f8:	e2855001 	add	r5, r5, #1
    20fc:	e1a00008 	mov	r0, r8
    2100:	e1a01009 	mov	r1, r9
    2104:	eb001052 	bl	6254 <__aeabi_dcmpgt>
    2108:	e3500000 	cmp	r0, #0
    210c:	01a08006 	moveq	r8, r6
    2110:	01a09007 	moveq	r9, r7
    2114:	e15b0005 	cmp	r11, r5
    2118:	e1a06008 	mov	r6, r8
    211c:	e1a07009 	mov	r7, r9
    2120:	8afffff1 	bhi	20ec <get_time_left+0x150>
	} else {
		track_index = get_next_processed_track();
	}
	
	return audio_stream.durations[track_index];
}
    2124:	e1a00006 	mov	r0, r6
    2128:	e1a01007 	mov	r1, r7
    212c:	e28dd014 	add	sp, sp, #20
    2130:	e8bd8ff0 	pop	{r4, r5, r6, r7, r8, r9, r10, r11, pc}
}

//finds the next valid track with least processed time
unsigned int get_next_processed_track(){
	unsigned int shortest_duration_index = 0;
	for(unsigned int i = 1; i < audio_stream.current_song->num_tracks; i++){
    2134:	e35b0001 	cmp	r11, #1
    2138:	9a000025 	bls	21d4 <get_time_left+0x238>
    213c:	e5949010 	ldr	r9, [r4, #16]
    2140:	e3a04000 	mov	r4, #0
    2144:	e59dc008 	ldr	r12, [sp, #8]
    2148:	e1a0a005 	mov	r10, r5
    214c:	e58d500c 	str	r5, [sp, #12]
    2150:	e3a08001 	mov	r8, #1
    2154:	e1a05004 	mov	r5, r4
    2158:	e1c960d0 	ldrd	r6, [r9]
    215c:	e1a0400c 	mov	r4, r12
    2160:	ea00000a 	b	2190 <get_time_left+0x1f4>
		if(!is_track_fully_processed(i)
			&& (audio_stream.durations[i] < audio_stream.durations[shortest_duration_index] || is_track_fully_processed(shortest_duration_index))){
    2164:	e59d0008 	ldr	r0, [sp, #8]
    2168:	e5933008 	ldr	r3, [r3, #8]
    216c:	e7902105 	ldr	r2, [r0, r5, lsl #2]
    2170:	e1520003 	cmp	r2, r3
    2174:	21cd60d0 	ldrdcs	r6, [sp]
    2178:	21a05008 	movcs	r5, r8
}

//finds the next valid track with least processed time
unsigned int get_next_processed_track(){
	unsigned int shortest_duration_index = 0;
	for(unsigned int i = 1; i < audio_stream.current_song->num_tracks; i++){
    217c:	e2888001 	add	r8, r8, #1
    2180:	e28aa00c 	add	r10, r10, #12
    2184:	e158000b 	cmp	r8, r11
    2188:	e2899008 	add	r9, r9, #8
    218c:	0affffe4 	beq	2124 <get_time_left+0x188>
		if(!is_track_fully_processed(i)
    2190:	e59a1014 	ldr	r1, [r10, #20]
			&& (audio_stream.durations[i] < audio_stream.durations[shortest_duration_index] || is_track_fully_processed(shortest_duration_index))){
    2194:	e1a02006 	mov	r2, r6
	
	return false;
}

bool is_track_fully_processed(unsigned int track_num){
	return audio_stream.current_process_locations[track_num] >= audio_stream.current_song->music_tracks[track_num].length;
    2198:	e5b40004 	ldr	r0, [r4, #4]!
//finds the next valid track with least processed time
unsigned int get_next_processed_track(){
	unsigned int shortest_duration_index = 0;
	for(unsigned int i = 1; i < audio_stream.current_song->num_tracks; i++){
		if(!is_track_fully_processed(i)
			&& (audio_stream.durations[i] < audio_stream.durations[shortest_duration_index] || is_track_fully_processed(shortest_duration_index))){
    219c:	e1a03007 	mov	r3, r7

//finds the next valid track with least processed time
unsigned int get_next_processed_track(){
	unsigned int shortest_duration_index = 0;
	for(unsigned int i = 1; i < audio_stream.current_song->num_tracks; i++){
		if(!is_track_fully_processed(i)
    21a0:	e1500001 	cmp	r0, r1
    21a4:	2afffff4 	bcs	217c <get_time_left+0x1e0>
			&& (audio_stream.durations[i] < audio_stream.durations[shortest_duration_index] || is_track_fully_processed(shortest_duration_index))){
    21a8:	e1c900d8 	ldrd	r0, [r9, #8]
    21ac:	e1cd00f0 	strd	r0, [sp]
    21b0:	eb001015 	bl	620c <__aeabi_dcmplt>
	
	return false;
}

bool is_track_fully_processed(unsigned int track_num){
	return audio_stream.current_process_locations[track_num] >= audio_stream.current_song->music_tracks[track_num].length;
    21b4:	e59d100c 	ldr	r1, [sp, #12]
    21b8:	e0853085 	add	r3, r5, r5, lsl #1
//finds the next valid track with least processed time
unsigned int get_next_processed_track(){
	unsigned int shortest_duration_index = 0;
	for(unsigned int i = 1; i < audio_stream.current_song->num_tracks; i++){
		if(!is_track_fully_processed(i)
			&& (audio_stream.durations[i] < audio_stream.durations[shortest_duration_index] || is_track_fully_processed(shortest_duration_index))){
    21bc:	e3500000 	cmp	r0, #0
	
	return false;
}

bool is_track_fully_processed(unsigned int track_num){
	return audio_stream.current_process_locations[track_num] >= audio_stream.current_song->music_tracks[track_num].length;
    21c0:	e0813103 	add	r3, r1, r3, lsl #2
//finds the next valid track with least processed time
unsigned int get_next_processed_track(){
	unsigned int shortest_duration_index = 0;
	for(unsigned int i = 1; i < audio_stream.current_song->num_tracks; i++){
		if(!is_track_fully_processed(i)
			&& (audio_stream.durations[i] < audio_stream.durations[shortest_duration_index] || is_track_fully_processed(shortest_duration_index))){
    21c4:	0affffe6 	beq	2164 <get_time_left+0x1c8>
    21c8:	e1cd60d0 	ldrd	r6, [sp]
    21cc:	e1a05008 	mov	r5, r8
    21d0:	eaffffe9 	b	217c <get_time_left+0x1e0>
    21d4:	e5943010 	ldr	r3, [r4, #16]
    21d8:	e1c360d0 	ldrd	r6, [r3]
    21dc:	eaffffd0 	b	2124 <get_time_left+0x188>

000021e0 <get_sample>:
double get_sample(char playback_type){
	//store the sample to be returned
	double to_return = 0;
	
	//check each track to see if it is to be placed on the playback type requested
	for(unsigned int i = 0; i < audio_stream.current_song->num_tracks; i++){
    21e0:	e303ccac 	movw	r12, #15532	; 0x3cac
	
	return audio_stream.durations[track_index];
}

//retrieve the current sample for all tracks of the provided playback type
double get_sample(char playback_type){
    21e4:	e92d4ff0 	push	{r4, r5, r6, r7, r8, r9, r10, r11, lr}
	//store the sample to be returned
	double to_return = 0;
	
	//check each track to see if it is to be placed on the playback type requested
	for(unsigned int i = 0; i < audio_stream.current_song->num_tracks; i++){
    21e8:	e340c015 	movt	r12, #21
	
	return audio_stream.durations[track_index];
}

//retrieve the current sample for all tracks of the provided playback type
double get_sample(char playback_type){
    21ec:	e24dd024 	sub	sp, sp, #36	; 0x24
    21f0:	e1a09000 	mov	r9, r0
	//store the sample to be returned
	double to_return = 0;
	
	//check each track to see if it is to be placed on the playback type requested
	for(unsigned int i = 0; i < audio_stream.current_song->num_tracks; i++){
    21f4:	e59c3014 	ldr	r3, [r12, #20]
    21f8:	e5932004 	ldr	r2, [r3, #4]
    21fc:	e3520000 	cmp	r2, #0
    2200:	0a000049 	beq	232c <get_sample+0x14c>
    2204:	e3a01000 	mov	r1, #0
    2208:	e3a00000 	mov	r0, #0
    220c:	e1cd00f8 	strd	r0, [sp, #8]
			
			//increment the next sample location
			audio_stream.current_playback_locations[i]++;
			
			//decrement the duration of the track played
			audio_stream.durations[i] -= sampling_period;
    2210:	e3071750 	movw	r1, #30544	; 0x7750
    2214:	e3401000 	movt	r1, #0
double get_sample(char playback_type){
	//store the sample to be returned
	double to_return = 0;
	
	//check each track to see if it is to be placed on the playback type requested
	for(unsigned int i = 0; i < audio_stream.current_song->num_tracks; i++){
    2218:	e3a04000 	mov	r4, #0
		struct MusicTrack current_track = audio_stream.current_song->music_tracks[i];
		
		if(current_track.playback_type == playback_type && audio_stream.queue_fronts[i] != NULL){
    221c:	e1a0b00c 	mov	r11, r12
			
			//increment the next sample location
			audio_stream.current_playback_locations[i]++;
			
			//decrement the duration of the track played
			audio_stream.durations[i] -= sampling_period;
    2220:	e58d1014 	str	r1, [sp, #20]
			
			//if the current wave has reached the end, advance and reset location
			if(audio_stream.current_playback_locations[i] == audio_stream.queue_fronts[i]->wave.length){
				advance_stream(&audio_stream.queue_fronts[i]);
				audio_stream.current_playback_locations[i] = 0;
    2224:	e58dc01c 	str	r12, [sp, #28]
    2228:	ea000002 	b	2238 <get_sample+0x58>
double get_sample(char playback_type){
	//store the sample to be returned
	double to_return = 0;
	
	//check each track to see if it is to be placed on the playback type requested
	for(unsigned int i = 0; i < audio_stream.current_song->num_tracks; i++){
    222c:	e2844001 	add	r4, r4, #1
    2230:	e1540002 	cmp	r4, r2
    2234:	2a000029 	bcs	22e0 <get_sample+0x100>
		struct MusicTrack current_track = audio_stream.current_song->music_tracks[i];
    2238:	e5931000 	ldr	r1, [r3]
    223c:	e0840084 	add	r0, r4, r4, lsl #1
    2240:	e0811100 	add	r1, r1, r0, lsl #2
		
		if(current_track.playback_type == playback_type && audio_stream.queue_fronts[i] != NULL){
    2244:	e5d11004 	ldrb	r1, [r1, #4]
    2248:	e1510009 	cmp	r1, r9
    224c:	1afffff6 	bne	222c <get_sample+0x4c>
    2250:	e59dc01c 	ldr	r12, [sp, #28]
			
			//increment the next sample location
			audio_stream.current_playback_locations[i]++;
			
			//decrement the duration of the track played
			audio_stream.durations[i] -= sampling_period;
    2254:	e1a06184 	lsl	r6, r4, #3
	//check each track to see if it is to be placed on the playback type requested
	for(unsigned int i = 0; i < audio_stream.current_song->num_tracks; i++){
		struct MusicTrack current_track = audio_stream.current_song->music_tracks[i];
		
		if(current_track.playback_type == playback_type && audio_stream.queue_fronts[i] != NULL){
			to_return += audio_stream.queue_fronts[i]->wave.waveform[audio_stream.current_playback_locations[i]];
    2258:	e1cd00d8 	ldrd	r0, [sp, #8]
	
	//check each track to see if it is to be placed on the playback type requested
	for(unsigned int i = 0; i < audio_stream.current_song->num_tracks; i++){
		struct MusicTrack current_track = audio_stream.current_song->music_tracks[i];
		
		if(current_track.playback_type == playback_type && audio_stream.queue_fronts[i] != NULL){
    225c:	e59cc008 	ldr	r12, [r12, #8]
    2260:	e58dc010 	str	r12, [sp, #16]
    2264:	e1a0c104 	lsl	r12, r4, #2
    2268:	e58dc018 	str	r12, [sp, #24]
    226c:	e59dc010 	ldr	r12, [sp, #16]
    2270:	e79c5104 	ldr	r5, [r12, r4, lsl #2]
    2274:	e3550000 	cmp	r5, #0
    2278:	0affffeb 	beq	222c <get_sample+0x4c>
			to_return += audio_stream.queue_fronts[i]->wave.waveform[audio_stream.current_playback_locations[i]];
    227c:	e59ba000 	ldr	r10, [r11]
    2280:	e595c000 	ldr	r12, [r5]
    2284:	e79a3104 	ldr	r3, [r10, r4, lsl #2]
			
			//increment the next sample location
			audio_stream.current_playback_locations[i]++;
    2288:	e2837001 	add	r7, r3, #1
	//check each track to see if it is to be placed on the playback type requested
	for(unsigned int i = 0; i < audio_stream.current_song->num_tracks; i++){
		struct MusicTrack current_track = audio_stream.current_song->music_tracks[i];
		
		if(current_track.playback_type == playback_type && audio_stream.queue_fronts[i] != NULL){
			to_return += audio_stream.queue_fronts[i]->wave.waveform[audio_stream.current_playback_locations[i]];
    228c:	e1a03183 	lsl	r3, r3, #3
    2290:	e18320dc 	ldrd	r2, [r3, r12]
    2294:	e58dc004 	str	r12, [sp, #4]
    2298:	eb000d77 	bl	587c <__adddf3>
    229c:	e1cd00f8 	strd	r0, [sp, #8]
			
			//increment the next sample location
			audio_stream.current_playback_locations[i]++;
			
			//decrement the duration of the track played
			audio_stream.durations[i] -= sampling_period;
    22a0:	e59d0014 	ldr	r0, [sp, #20]
    22a4:	e59b8010 	ldr	r8, [r11, #16]
		
		if(current_track.playback_type == playback_type && audio_stream.queue_fronts[i] != NULL){
			to_return += audio_stream.queue_fronts[i]->wave.waveform[audio_stream.current_playback_locations[i]];
			
			//increment the next sample location
			audio_stream.current_playback_locations[i]++;
    22a8:	e78a7104 	str	r7, [r10, r4, lsl #2]
			
			//decrement the duration of the track played
			audio_stream.durations[i] -= sampling_period;
    22ac:	e1c020d0 	ldrd	r2, [r0]
    22b0:	e18800d6 	ldrd	r0, [r8, r6]
    22b4:	eb000d6f 	bl	5878 <__aeabi_dsub>
			
			//if the current wave has reached the end, advance and reset location
			if(audio_stream.current_playback_locations[i] == audio_stream.queue_fronts[i]->wave.length){
    22b8:	e5953004 	ldr	r3, [r5, #4]
    22bc:	e59dc004 	ldr	r12, [sp, #4]
			
			//increment the next sample location
			audio_stream.current_playback_locations[i]++;
			
			//decrement the duration of the track played
			audio_stream.durations[i] -= sampling_period;
    22c0:	e18800f6 	strd	r0, [r8, r6]
			
			//if the current wave has reached the end, advance and reset location
			if(audio_stream.current_playback_locations[i] == audio_stream.queue_fronts[i]->wave.length){
    22c4:	e1570003 	cmp	r7, r3
    22c8:	0a000007 	beq	22ec <get_sample+0x10c>
    22cc:	e59b3014 	ldr	r3, [r11, #20]
double get_sample(char playback_type){
	//store the sample to be returned
	double to_return = 0;
	
	//check each track to see if it is to be placed on the playback type requested
	for(unsigned int i = 0; i < audio_stream.current_song->num_tracks; i++){
    22d0:	e2844001 	add	r4, r4, #1
    22d4:	e5932004 	ldr	r2, [r3, #4]
    22d8:	e1540002 	cmp	r4, r2
    22dc:	3affffd5 	bcc	2238 <get_sample+0x58>
    22e0:	e1cd00d8 	ldrd	r0, [sp, #8]
			}
		}
	}
	
	return to_return;	
    22e4:	e28dd024 	add	sp, sp, #36	; 0x24
    22e8:	e8bd8ff0 	pop	{r4, r5, r6, r7, r8, r9, r10, r11, pc}
void advance_stream(struct MusicWaveNode ** front_node){
	//save a copy of the pointer to the next node
	struct MusicWaveNode * next_node = (*front_node)->next;
	
	//free the memory from both the waveform and the node
	free((*front_node)->wave.waveform);
    22ec:	e1a0000c 	mov	r0, r12
	}
}

void advance_stream(struct MusicWaveNode ** front_node){
	//save a copy of the pointer to the next node
	struct MusicWaveNode * next_node = (*front_node)->next;
    22f0:	e5955008 	ldr	r5, [r5, #8]
	
	//free the memory from both the waveform and the node
	free((*front_node)->wave.waveform);
    22f4:	eb001029 	bl	63a0 <free>
	free(*front_node);
    22f8:	e59d1010 	ldr	r1, [sp, #16]
    22fc:	e59dc018 	ldr	r12, [sp, #24]
    2300:	e791000c 	ldr	r0, [r1, r12]
    2304:	eb001025 	bl	63a0 <free>
	
	//reattach the rest of the queue to the front
	*front_node = next_node;
    2308:	e59dc018 	ldr	r12, [sp, #24]
			audio_stream.durations[i] -= sampling_period;
			
			//if the current wave has reached the end, advance and reset location
			if(audio_stream.current_playback_locations[i] == audio_stream.queue_fronts[i]->wave.length){
				advance_stream(&audio_stream.queue_fronts[i]);
				audio_stream.current_playback_locations[i] = 0;
    230c:	e3a01000 	mov	r1, #0
	//free the memory from both the waveform and the node
	free((*front_node)->wave.waveform);
	free(*front_node);
	
	//reattach the rest of the queue to the front
	*front_node = next_node;
    2310:	e59d0010 	ldr	r0, [sp, #16]
    2314:	e780500c 	str	r5, [r0, r12]
			audio_stream.durations[i] -= sampling_period;
			
			//if the current wave has reached the end, advance and reset location
			if(audio_stream.current_playback_locations[i] == audio_stream.queue_fronts[i]->wave.length){
				advance_stream(&audio_stream.queue_fronts[i]);
				audio_stream.current_playback_locations[i] = 0;
    2318:	e59b2000 	ldr	r2, [r11]
    231c:	e59b3014 	ldr	r3, [r11, #20]
    2320:	e782100c 	str	r1, [r2, r12]
    2324:	e5932004 	ldr	r2, [r3, #4]
    2328:	eaffffbf 	b	222c <get_sample+0x4c>
}

//retrieve the current sample for all tracks of the provided playback type
double get_sample(char playback_type){
	//store the sample to be returned
	double to_return = 0;
    232c:	e3a02000 	mov	r2, #0
    2330:	e3a03000 	mov	r3, #0
    2334:	e1cd20f8 	strd	r2, [sp, #8]
    2338:	e1a00002 	mov	r0, r2
    233c:	e1a01003 	mov	r1, r3
    2340:	eaffffe7 	b	22e4 <get_sample+0x104>
    2344:	00000000 	andeq	r0, r0, r0

00002348 <floor>:
    2348:	e92d45f8 	push	{r3, r4, r5, r6, r7, r8, r10, lr}
    234c:	e1a08081 	lsl	r8, r1, #1
    2350:	e1a08aa8 	lsr	r8, r8, #21
    2354:	e2486fff 	sub	r6, r8, #1020	; 0x3fc
    2358:	e2466003 	sub	r6, r6, #3
    235c:	e3560013 	cmp	r6, #19
    2360:	e1a02000 	mov	r2, r0
    2364:	e1a03001 	mov	r3, r1
    2368:	e1a04000 	mov	r4, r0
    236c:	e1a05001 	mov	r5, r1
    2370:	e1a07001 	mov	r7, r1
    2374:	ca000019 	bgt	23e0 <floor+0x98>
    2378:	e3560000 	cmp	r6, #0
    237c:	ba000034 	blt	2454 <floor+0x10c>
    2380:	e59f8150 	ldr	r8, [pc, #336]	; 24d8 <floor+0x190>
    2384:	e1a08658 	asr	r8, r8, r6
    2388:	e008c001 	and	r12, r8, r1
    238c:	e19cc000 	orrs	r12, r12, r0
    2390:	0a00000e 	beq	23d0 <floor+0x88>
    2394:	e28f3f4d 	add	r3, pc, #308	; 0x134
    2398:	e893000c 	ldm	r3, {r2, r3}
    239c:	eb000d36 	bl	587c <__adddf3>
    23a0:	e3a02000 	mov	r2, #0
    23a4:	e3a03000 	mov	r3, #0
    23a8:	eb000fa9 	bl	6254 <__aeabi_dcmpgt>
    23ac:	e3500000 	cmp	r0, #0
    23b0:	0a000004 	beq	23c8 <floor+0x80>
    23b4:	e3550000 	cmp	r5, #0
    23b8:	b3a03601 	movlt	r3, #1048576	; 0x100000
    23bc:	b0855653 	addlt	r5, r5, r3, asr r6
    23c0:	e3a04000 	mov	r4, #0
    23c4:	e1c57008 	bic	r7, r5, r8
    23c8:	e1a03007 	mov	r3, r7
    23cc:	e1a02004 	mov	r2, r4
    23d0:	e1a00002 	mov	r0, r2
    23d4:	e1a01003 	mov	r1, r3
    23d8:	e8bd45f8 	pop	{r3, r4, r5, r6, r7, r8, r10, lr}
    23dc:	e12fff1e 	bx	lr
    23e0:	e3560033 	cmp	r6, #51	; 0x33
    23e4:	da000005 	ble	2400 <floor+0xb8>
    23e8:	e3560b01 	cmp	r6, #1024	; 0x400
    23ec:	1afffff7 	bne	23d0 <floor+0x88>
    23f0:	eb000d21 	bl	587c <__adddf3>
    23f4:	e1a02000 	mov	r2, r0
    23f8:	e1a03001 	mov	r3, r1
    23fc:	eafffff3 	b	23d0 <floor+0x88>
    2400:	e248ae41 	sub	r10, r8, #1040	; 0x410
    2404:	e24aa003 	sub	r10, r10, #3
    2408:	e3e0c000 	mvn	r12, #0
    240c:	e1a0aa3c 	lsr	r10, r12, r10
    2410:	e11a0000 	tst	r10, r0
    2414:	0affffed 	beq	23d0 <floor+0x88>
    2418:	e28f30b0 	add	r3, pc, #176	; 0xb0
    241c:	e893000c 	ldm	r3, {r2, r3}
    2420:	eb000d15 	bl	587c <__adddf3>
    2424:	e3a02000 	mov	r2, #0
    2428:	e3a03000 	mov	r3, #0
    242c:	eb000f88 	bl	6254 <__aeabi_dcmpgt>
    2430:	e3500000 	cmp	r0, #0
    2434:	0affffe3 	beq	23c8 <floor+0x80>
    2438:	e3550000 	cmp	r5, #0
    243c:	ba000017 	blt	24a0 <floor+0x158>
    2440:	e1c4400a 	bic	r4, r4, r10
    2444:	e1a07005 	mov	r7, r5
    2448:	e1a03007 	mov	r3, r7
    244c:	e1a02004 	mov	r2, r4
    2450:	eaffffde 	b	23d0 <floor+0x88>
    2454:	e28f3074 	add	r3, pc, #116	; 0x74
    2458:	e893000c 	ldm	r3, {r2, r3}
    245c:	eb000d06 	bl	587c <__adddf3>
    2460:	e3a02000 	mov	r2, #0
    2464:	e3a03000 	mov	r3, #0
    2468:	eb000f79 	bl	6254 <__aeabi_dcmpgt>
    246c:	e3500000 	cmp	r0, #0
    2470:	0affffd4 	beq	23c8 <floor+0x80>
    2474:	e3550000 	cmp	r5, #0
    2478:	a3a04000 	movge	r4, #0
    247c:	a1a07004 	movge	r7, r4
    2480:	aaffffd0 	bge	23c8 <floor+0x80>
    2484:	e3c73102 	bic	r3, r7, #-2147483648	; 0x80000000
    2488:	e1833004 	orr	r3, r3, r4
    248c:	e3530000 	cmp	r3, #0
    2490:	e59f3044 	ldr	r3, [pc, #68]	; 24dc <floor+0x194>
    2494:	13a04000 	movne	r4, #0
    2498:	11a07003 	movne	r7, r3
    249c:	eaffffc9 	b	23c8 <floor+0x80>
    24a0:	e3560014 	cmp	r6, #20
    24a4:	02855001 	addeq	r5, r5, #1
    24a8:	0affffe4 	beq	2440 <floor+0xf8>
    24ac:	e2688e43 	rsb	r8, r8, #1072	; 0x430
    24b0:	e2888003 	add	r8, r8, #3
    24b4:	e3a03001 	mov	r3, #1
    24b8:	e0843813 	add	r3, r4, r3, lsl r8
    24bc:	e1540003 	cmp	r4, r3
    24c0:	82855001 	addhi	r5, r5, #1
    24c4:	e1a04003 	mov	r4, r3
    24c8:	eaffffdc 	b	2440 <floor+0xf8>
    24cc:	e1a00000 	nop			; (mov r0, r0)
    24d0:	8800759c 	.word	0x8800759c
    24d4:	7e37e43c 	.word	0x7e37e43c
    24d8:	000fffff 	.word	0x000fffff
    24dc:	bff00000 	.word	0xbff00000

000024e0 <sin>:
    24e0:	e92d4030 	push	{r4, r5, lr}
    24e4:	e59fe0ec 	ldr	lr, [pc, #236]	; 25d8 <sin+0xf8>
    24e8:	e3c1c102 	bic	r12, r1, #-2147483648	; 0x80000000
    24ec:	e15c000e 	cmp	r12, lr
    24f0:	e24dd01c 	sub	sp, sp, #28
    24f4:	e1a02000 	mov	r2, r0
    24f8:	e1a03001 	mov	r3, r1
    24fc:	e1a04000 	mov	r4, r0
    2500:	e1a05001 	mov	r5, r1
    2504:	da000017 	ble	2568 <sin+0x88>
    2508:	e59fe0cc 	ldr	lr, [pc, #204]	; 25dc <sin+0xfc>
    250c:	e15c000e 	cmp	r12, lr
    2510:	da000003 	ble	2524 <sin+0x44>
    2514:	eb000cd7 	bl	5878 <__aeabi_dsub>
    2518:	e28dd01c 	add	sp, sp, #28
    251c:	e8bd4030 	pop	{r4, r5, lr}
    2520:	e12fff1e 	bx	lr
    2524:	e28d2008 	add	r2, sp, #8
    2528:	eb00056c 	bl	3ae0 <__ieee754_rem_pio2>
    252c:	e2000003 	and	r0, r0, #3
    2530:	e3500001 	cmp	r0, #1
    2534:	0a00001a 	beq	25a4 <sin+0xc4>
    2538:	e3500002 	cmp	r0, #2
    253c:	0a00000f 	beq	2580 <sin+0xa0>
    2540:	e3500000 	cmp	r0, #0
    2544:	1a00001c 	bne	25bc <sin+0xdc>
    2548:	e3a03001 	mov	r3, #1
    254c:	e58d3000 	str	r3, [sp]
    2550:	e28d1008 	add	r1, sp, #8
    2554:	e8910003 	ldm	r1, {r0, r1}
    2558:	e28d3010 	add	r3, sp, #16
    255c:	e893000c 	ldm	r3, {r2, r3}
    2560:	eb000b3c 	bl	5258 <__kernel_sin>
    2564:	eaffffeb 	b	2518 <sin+0x38>
    2568:	e3a03000 	mov	r3, #0
    256c:	e58d3000 	str	r3, [sp]
    2570:	e3a02000 	mov	r2, #0
    2574:	e3a03000 	mov	r3, #0
    2578:	eb000b36 	bl	5258 <__kernel_sin>
    257c:	eaffffe5 	b	2518 <sin+0x38>
    2580:	e3a03001 	mov	r3, #1
    2584:	e58d3000 	str	r3, [sp]
    2588:	e28d1008 	add	r1, sp, #8
    258c:	e8910003 	ldm	r1, {r0, r1}
    2590:	e28d3010 	add	r3, sp, #16
    2594:	e893000c 	ldm	r3, {r2, r3}
    2598:	eb000b2e 	bl	5258 <__kernel_sin>
    259c:	e2811102 	add	r1, r1, #-2147483648	; 0x80000000
    25a0:	eaffffdc 	b	2518 <sin+0x38>
    25a4:	e28d1008 	add	r1, sp, #8
    25a8:	e8910003 	ldm	r1, {r0, r1}
    25ac:	e28d3010 	add	r3, sp, #16
    25b0:	e893000c 	ldm	r3, {r2, r3}
    25b4:	eb00076f 	bl	4378 <__kernel_cos>
    25b8:	eaffffd6 	b	2518 <sin+0x38>
    25bc:	e28d1008 	add	r1, sp, #8
    25c0:	e8910003 	ldm	r1, {r0, r1}
    25c4:	e28d3010 	add	r3, sp, #16
    25c8:	e893000c 	ldm	r3, {r2, r3}
    25cc:	eb000769 	bl	4378 <__kernel_cos>
    25d0:	e2811102 	add	r1, r1, #-2147483648	; 0x80000000
    25d4:	eaffffcf 	b	2518 <sin+0x38>
    25d8:	3fe921fb 	.word	0x3fe921fb
    25dc:	7fefffff 	.word	0x7fefffff

000025e0 <pow>:
    25e0:	e92d4ff0 	push	{r4, r5, r6, r7, r8, r9, r10, r11, lr}
    25e4:	e24dd02c 	sub	sp, sp, #44	; 0x2c
    25e8:	e1a07003 	mov	r7, r3
    25ec:	e1a08000 	mov	r8, r0
    25f0:	e1a09001 	mov	r9, r1
    25f4:	e1a06002 	mov	r6, r2
    25f8:	eb000138 	bl	2ae0 <__ieee754_pow>
    25fc:	e59fb4bc 	ldr	r11, [pc, #1212]	; 2ac0 <pow+0x4e0>
    2600:	e1db30d0 	ldrsb	r3, [r11]
    2604:	e3730001 	cmn	r3, #1
    2608:	e1a04000 	mov	r4, r0
    260c:	e1a05001 	mov	r5, r1
    2610:	0a000004 	beq	2628 <pow+0x48>
    2614:	e1a00006 	mov	r0, r6
    2618:	e1a01007 	mov	r1, r7
    261c:	eb000b9b 	bl	5490 <__fpclassifyd>
    2620:	e3500000 	cmp	r0, #0
    2624:	1a000004 	bne	263c <pow+0x5c>
    2628:	e1a00004 	mov	r0, r4
    262c:	e1a01005 	mov	r1, r5
    2630:	e28dd02c 	add	sp, sp, #44	; 0x2c
    2634:	e8bd4ff0 	pop	{r4, r5, r6, r7, r8, r9, r10, r11, lr}
    2638:	e12fff1e 	bx	lr
    263c:	e1a00008 	mov	r0, r8
    2640:	e1a01009 	mov	r1, r9
    2644:	eb000b91 	bl	5490 <__fpclassifyd>
    2648:	e250a000 	subs	r10, r0, #0
    264c:	1a00001a 	bne	26bc <pow+0xdc>
    2650:	e1a00006 	mov	r0, r6
    2654:	e1a01007 	mov	r1, r7
    2658:	e3a02000 	mov	r2, #0
    265c:	e3a03000 	mov	r3, #0
    2660:	eb000ee3 	bl	61f4 <__aeabi_dcmpeq>
    2664:	e3500000 	cmp	r0, #0
    2668:	0affffee 	beq	2628 <pow+0x48>
    266c:	e1db30d0 	ldrsb	r3, [r11]
    2670:	e3730001 	cmn	r3, #1
    2674:	13530002 	cmpne	r3, #2
    2678:	e3a03001 	mov	r3, #1
    267c:	e58d3000 	str	r3, [sp]
    2680:	e59f343c 	ldr	r3, [pc, #1084]	; 2ac4 <pow+0x4e4>
    2684:	e58d3004 	str	r3, [sp, #4]
    2688:	e59f3438 	ldr	r3, [pc, #1080]	; 2ac8 <pow+0x4e8>
    268c:	e3a02000 	mov	r2, #0
    2690:	e58da020 	str	r10, [sp, #32]
    2694:	e58d8008 	str	r8, [sp, #8]
    2698:	e58d900c 	str	r9, [sp, #12]
    269c:	e58d6010 	str	r6, [sp, #16]
    26a0:	e58d7014 	str	r7, [sp, #20]
    26a4:	e58d2018 	str	r2, [sp, #24]
    26a8:	e58d301c 	str	r3, [sp, #28]
    26ac:	1a000025 	bne	2748 <pow+0x168>
    26b0:	e28d5018 	add	r5, sp, #24
    26b4:	e8950030 	ldm	r5, {r4, r5}
    26b8:	eaffffda 	b	2628 <pow+0x48>
    26bc:	e1a00008 	mov	r0, r8
    26c0:	e1a01009 	mov	r1, r9
    26c4:	e3a02000 	mov	r2, #0
    26c8:	e3a03000 	mov	r3, #0
    26cc:	eb000ec8 	bl	61f4 <__aeabi_dcmpeq>
    26d0:	e3500000 	cmp	r0, #0
    26d4:	0a000026 	beq	2774 <pow+0x194>
    26d8:	e1a00006 	mov	r0, r6
    26dc:	e1a01007 	mov	r1, r7
    26e0:	e3a02000 	mov	r2, #0
    26e4:	e3a03000 	mov	r3, #0
    26e8:	eb000ec1 	bl	61f4 <__aeabi_dcmpeq>
    26ec:	e3500000 	cmp	r0, #0
    26f0:	0a00004e 	beq	2830 <pow+0x250>
    26f4:	e1db30d0 	ldrsb	r3, [r11]
    26f8:	e3530000 	cmp	r3, #0
    26fc:	e3a03001 	mov	r3, #1
    2700:	e58d3000 	str	r3, [sp]
    2704:	e59f33b8 	ldr	r3, [pc, #952]	; 2ac4 <pow+0x4e4>
    2708:	e58d3004 	str	r3, [sp, #4]
    270c:	e3a03000 	mov	r3, #0
    2710:	e58d3020 	str	r3, [sp, #32]
    2714:	e3a04000 	mov	r4, #0
    2718:	e3a03000 	mov	r3, #0
    271c:	e58d8008 	str	r8, [sp, #8]
    2720:	e58d900c 	str	r9, [sp, #12]
    2724:	e58d6010 	str	r6, [sp, #16]
    2728:	e58d7014 	str	r7, [sp, #20]
    272c:	e58d3018 	str	r3, [sp, #24]
    2730:	e58d401c 	str	r4, [sp, #28]
    2734:	159f338c 	ldrne	r3, [pc, #908]	; 2ac8 <pow+0x4e8>
    2738:	13a02000 	movne	r2, #0
    273c:	158d2018 	strne	r2, [sp, #24]
    2740:	158d301c 	strne	r3, [sp, #28]
    2744:	1affffd9 	bne	26b0 <pow+0xd0>
    2748:	e1a0000d 	mov	r0, sp
    274c:	eb000b6a 	bl	54fc <matherr>
    2750:	e3500000 	cmp	r0, #0
    2754:	0a000058 	beq	28bc <pow+0x2dc>
    2758:	e59d3020 	ldr	r3, [sp, #32]
    275c:	e3530000 	cmp	r3, #0
    2760:	0affffd2 	beq	26b0 <pow+0xd0>
    2764:	eb000ef4 	bl	633c <__errno>
    2768:	e59d3020 	ldr	r3, [sp, #32]
    276c:	e5803000 	str	r3, [r0]
    2770:	eaffffce 	b	26b0 <pow+0xd0>
    2774:	e1a00004 	mov	r0, r4
    2778:	e1a01005 	mov	r1, r5
    277c:	eb000b3f 	bl	5480 <finite>
    2780:	e250a000 	subs	r10, r0, #0
    2784:	0a000050 	beq	28cc <pow+0x2ec>
    2788:	e1a00004 	mov	r0, r4
    278c:	e1a01005 	mov	r1, r5
    2790:	e3a02000 	mov	r2, #0
    2794:	e3a03000 	mov	r3, #0
    2798:	eb000e95 	bl	61f4 <__aeabi_dcmpeq>
    279c:	e3500000 	cmp	r0, #0
    27a0:	0affffa0 	beq	2628 <pow+0x48>
    27a4:	e1a00008 	mov	r0, r8
    27a8:	e1a01009 	mov	r1, r9
    27ac:	eb000b33 	bl	5480 <finite>
    27b0:	e3500000 	cmp	r0, #0
    27b4:	0affff9b 	beq	2628 <pow+0x48>
    27b8:	e1a00006 	mov	r0, r6
    27bc:	e1a01007 	mov	r1, r7
    27c0:	eb000b2e 	bl	5480 <finite>
    27c4:	e3500000 	cmp	r0, #0
    27c8:	0affff96 	beq	2628 <pow+0x48>
    27cc:	e1db30d0 	ldrsb	r3, [r11]
    27d0:	e3530002 	cmp	r3, #2
    27d4:	e3a03004 	mov	r3, #4
    27d8:	e58d3000 	str	r3, [sp]
    27dc:	e59f32e0 	ldr	r3, [pc, #736]	; 2ac4 <pow+0x4e4>
    27e0:	e58d3004 	str	r3, [sp, #4]
    27e4:	e3a03000 	mov	r3, #0
    27e8:	e58d3020 	str	r3, [sp, #32]
    27ec:	e3a04000 	mov	r4, #0
    27f0:	e3a03000 	mov	r3, #0
    27f4:	e58d8008 	str	r8, [sp, #8]
    27f8:	e58d900c 	str	r9, [sp, #12]
    27fc:	e58d6010 	str	r6, [sp, #16]
    2800:	e58d7014 	str	r7, [sp, #20]
    2804:	e58d3018 	str	r3, [sp, #24]
    2808:	e58d401c 	str	r4, [sp, #28]
    280c:	0a00005c 	beq	2984 <pow+0x3a4>
    2810:	e1a0000d 	mov	r0, sp
    2814:	eb000b38 	bl	54fc <matherr>
    2818:	e3500000 	cmp	r0, #0
    281c:	0a000058 	beq	2984 <pow+0x3a4>
    2820:	e59d3020 	ldr	r3, [sp, #32]
    2824:	e3530000 	cmp	r3, #0
    2828:	0affffa0 	beq	26b0 <pow+0xd0>
    282c:	eaffffcc 	b	2764 <pow+0x184>
    2830:	e1a00006 	mov	r0, r6
    2834:	e1a01007 	mov	r1, r7
    2838:	eb000b10 	bl	5480 <finite>
    283c:	e3500000 	cmp	r0, #0
    2840:	0affff78 	beq	2628 <pow+0x48>
    2844:	e1a00006 	mov	r0, r6
    2848:	e1a01007 	mov	r1, r7
    284c:	e3a02000 	mov	r2, #0
    2850:	e3a03000 	mov	r3, #0
    2854:	eb000e6c 	bl	620c <__aeabi_dcmplt>
    2858:	e3500000 	cmp	r0, #0
    285c:	0affff71 	beq	2628 <pow+0x48>
    2860:	e3a02001 	mov	r2, #1
    2864:	e5db3000 	ldrb	r3, [r11]
    2868:	e58d2000 	str	r2, [sp]
    286c:	e59f2250 	ldr	r2, [pc, #592]	; 2ac4 <pow+0x4e4>
    2870:	e3530000 	cmp	r3, #0
    2874:	e58d2004 	str	r2, [sp, #4]
    2878:	e3a02000 	mov	r2, #0
    287c:	e58d2020 	str	r2, [sp, #32]
    2880:	e58d8008 	str	r8, [sp, #8]
    2884:	e58d900c 	str	r9, [sp, #12]
    2888:	e58d6010 	str	r6, [sp, #16]
    288c:	e58d7014 	str	r7, [sp, #20]
    2890:	0a000036 	beq	2970 <pow+0x390>
    2894:	e3530002 	cmp	r3, #2
    2898:	e59f322c 	ldr	r3, [pc, #556]	; 2acc <pow+0x4ec>
    289c:	e3a02000 	mov	r2, #0
    28a0:	e58d2018 	str	r2, [sp, #24]
    28a4:	e58d301c 	str	r3, [sp, #28]
    28a8:	1a00002b 	bne	295c <pow+0x37c>
    28ac:	eb000ea2 	bl	633c <__errno>
    28b0:	e3a03021 	mov	r3, #33	; 0x21
    28b4:	e5803000 	str	r3, [r0]
    28b8:	eaffffd8 	b	2820 <pow+0x240>
    28bc:	eb000e9e 	bl	633c <__errno>
    28c0:	e3a03021 	mov	r3, #33	; 0x21
    28c4:	e5803000 	str	r3, [r0]
    28c8:	eaffffa2 	b	2758 <pow+0x178>
    28cc:	e1a00008 	mov	r0, r8
    28d0:	e1a01009 	mov	r1, r9
    28d4:	eb000ae9 	bl	5480 <finite>
    28d8:	e3500000 	cmp	r0, #0
    28dc:	0affffa9 	beq	2788 <pow+0x1a8>
    28e0:	e1a00006 	mov	r0, r6
    28e4:	e1a01007 	mov	r1, r7
    28e8:	eb000ae4 	bl	5480 <finite>
    28ec:	e3500000 	cmp	r0, #0
    28f0:	0affffa4 	beq	2788 <pow+0x1a8>
    28f4:	e1a00004 	mov	r0, r4
    28f8:	e1a01005 	mov	r1, r5
    28fc:	eb000ae3 	bl	5490 <__fpclassifyd>
    2900:	e3500000 	cmp	r0, #0
    2904:	1a000022 	bne	2994 <pow+0x3b4>
    2908:	e3a03001 	mov	r3, #1
    290c:	e5db4000 	ldrb	r4, [r11]
    2910:	e58d3000 	str	r3, [sp]
    2914:	e59f31a8 	ldr	r3, [pc, #424]	; 2ac4 <pow+0x4e4>
    2918:	e3540000 	cmp	r4, #0
    291c:	e58d3004 	str	r3, [sp, #4]
    2920:	e58d0020 	str	r0, [sp, #32]
    2924:	e58d8008 	str	r8, [sp, #8]
    2928:	e58d900c 	str	r9, [sp, #12]
    292c:	e58d6010 	str	r6, [sp, #16]
    2930:	e58d7014 	str	r7, [sp, #20]
    2934:	0a00000d 	beq	2970 <pow+0x390>
    2938:	e3a00000 	mov	r0, #0
    293c:	e3a01000 	mov	r1, #0
    2940:	e1a02000 	mov	r2, r0
    2944:	e1a03001 	mov	r3, r1
    2948:	eb000d73 	bl	5f1c <__aeabi_ddiv>
    294c:	e3540002 	cmp	r4, #2
    2950:	e58d0018 	str	r0, [sp, #24]
    2954:	e58d101c 	str	r1, [sp, #28]
    2958:	0affffd3 	beq	28ac <pow+0x2cc>
    295c:	e1a0000d 	mov	r0, sp
    2960:	eb000ae5 	bl	54fc <matherr>
    2964:	e3500000 	cmp	r0, #0
    2968:	1affffac 	bne	2820 <pow+0x240>
    296c:	eaffffce 	b	28ac <pow+0x2cc>
    2970:	e3a03000 	mov	r3, #0
    2974:	e3a04000 	mov	r4, #0
    2978:	e58d3018 	str	r3, [sp, #24]
    297c:	e58d401c 	str	r4, [sp, #28]
    2980:	eafffff5 	b	295c <pow+0x37c>
    2984:	eb000e6c 	bl	633c <__errno>
    2988:	e3a03022 	mov	r3, #34	; 0x22
    298c:	e5803000 	str	r3, [r0]
    2990:	eaffffa2 	b	2820 <pow+0x240>
    2994:	e1db20d0 	ldrsb	r2, [r11]
    2998:	e3520000 	cmp	r2, #0
    299c:	e3a02003 	mov	r2, #3
    29a0:	e58d2000 	str	r2, [sp]
    29a4:	e59f2118 	ldr	r2, [pc, #280]	; 2ac4 <pow+0x4e4>
    29a8:	e1a00008 	mov	r0, r8
    29ac:	e58d2004 	str	r2, [sp, #4]
    29b0:	e1a01009 	mov	r1, r9
    29b4:	e58da020 	str	r10, [sp, #32]
    29b8:	e58d8008 	str	r8, [sp, #8]
    29bc:	e58d900c 	str	r9, [sp, #12]
    29c0:	e58d6010 	str	r6, [sp, #16]
    29c4:	e58d7014 	str	r7, [sp, #20]
    29c8:	e3a02000 	mov	r2, #0
    29cc:	e3a03000 	mov	r3, #0
    29d0:	1a000011 	bne	2a1c <pow+0x43c>
    29d4:	e59f50f4 	ldr	r5, [pc, #244]	; 2ad0 <pow+0x4f0>
    29d8:	e3a0420e 	mov	r4, #-536870912	; 0xe0000000
    29dc:	e58d4018 	str	r4, [sp, #24]
    29e0:	e58d501c 	str	r5, [sp, #28]
    29e4:	eb000e08 	bl	620c <__aeabi_dcmplt>
    29e8:	e3500000 	cmp	r0, #0
    29ec:	1a000022 	bne	2a7c <pow+0x49c>
    29f0:	e1db30d0 	ldrsb	r3, [r11]
    29f4:	e3530002 	cmp	r3, #2
    29f8:	0a000003 	beq	2a0c <pow+0x42c>
    29fc:	e1a0000d 	mov	r0, sp
    2a00:	eb000abd 	bl	54fc <matherr>
    2a04:	e3500000 	cmp	r0, #0
    2a08:	1affff52 	bne	2758 <pow+0x178>
    2a0c:	eb000e4a 	bl	633c <__errno>
    2a10:	e3a03022 	mov	r3, #34	; 0x22
    2a14:	e5803000 	str	r3, [r0]
    2a18:	eaffff4e 	b	2758 <pow+0x178>
    2a1c:	e59f50b0 	ldr	r5, [pc, #176]	; 2ad4 <pow+0x4f4>
    2a20:	e3a04000 	mov	r4, #0
    2a24:	e58d4018 	str	r4, [sp, #24]
    2a28:	e58d501c 	str	r5, [sp, #28]
    2a2c:	eb000df6 	bl	620c <__aeabi_dcmplt>
    2a30:	e3500000 	cmp	r0, #0
    2a34:	0affffed 	beq	29f0 <pow+0x410>
    2a38:	e3a02000 	mov	r2, #0
    2a3c:	e59f3094 	ldr	r3, [pc, #148]	; 2ad8 <pow+0x4f8>
    2a40:	e1a00006 	mov	r0, r6
    2a44:	e1a01007 	mov	r1, r7
    2a48:	eb000c8f 	bl	5c8c <__aeabi_dmul>
    2a4c:	e1a04000 	mov	r4, r0
    2a50:	e1a05001 	mov	r5, r1
    2a54:	eb000aae 	bl	5514 <rint>
    2a58:	e1a02004 	mov	r2, r4
    2a5c:	e1a03005 	mov	r3, r5
    2a60:	eb000de3 	bl	61f4 <__aeabi_dcmpeq>
    2a64:	e3500000 	cmp	r0, #0
    2a68:	059f305c 	ldreq	r3, [pc, #92]	; 2acc <pow+0x4ec>
    2a6c:	03a02000 	moveq	r2, #0
    2a70:	058d2018 	streq	r2, [sp, #24]
    2a74:	058d301c 	streq	r3, [sp, #28]
    2a78:	eaffffdc 	b	29f0 <pow+0x410>
    2a7c:	e3a02000 	mov	r2, #0
    2a80:	e59f3050 	ldr	r3, [pc, #80]	; 2ad8 <pow+0x4f8>
    2a84:	e1a00006 	mov	r0, r6
    2a88:	e1a01007 	mov	r1, r7
    2a8c:	eb000c7e 	bl	5c8c <__aeabi_dmul>
    2a90:	e1a04000 	mov	r4, r0
    2a94:	e1a05001 	mov	r5, r1
    2a98:	eb000a9d 	bl	5514 <rint>
    2a9c:	e1a02004 	mov	r2, r4
    2aa0:	e1a03005 	mov	r3, r5
    2aa4:	eb000dd2 	bl	61f4 <__aeabi_dcmpeq>
    2aa8:	e3500000 	cmp	r0, #0
    2aac:	059f3028 	ldreq	r3, [pc, #40]	; 2adc <pow+0x4fc>
    2ab0:	03a0220e 	moveq	r2, #-536870912	; 0xe0000000
    2ab4:	058d2018 	streq	r2, [sp, #24]
    2ab8:	058d301c 	streq	r3, [sp, #28]
    2abc:	eaffffcb 	b	29f0 <pow+0x410>
    2ac0:	001256f0 	.word	0x001256f0
    2ac4:	0000777c 	.word	0x0000777c
    2ac8:	3ff00000 	.word	0x3ff00000
    2acc:	fff00000 	.word	0xfff00000
    2ad0:	47efffff 	.word	0x47efffff
    2ad4:	7ff00000 	.word	0x7ff00000
    2ad8:	3fe00000 	.word	0x3fe00000
    2adc:	c7efffff 	.word	0xc7efffff

00002ae0 <__ieee754_pow>:
    2ae0:	e92d4ff0 	push	{r4, r5, r6, r7, r8, r9, r10, r11, lr}
    2ae4:	e1a0b003 	mov	r11, r3
    2ae8:	e1a0a002 	mov	r10, r2
    2aec:	e3cb6102 	bic	r6, r11, #-2147483648	; 0x80000000
    2af0:	e1a08001 	mov	r8, r1
    2af4:	e24dd044 	sub	sp, sp, #68	; 0x44
    2af8:	e196100a 	orrs	r1, r6, r10
    2afc:	e1a04002 	mov	r4, r2
    2b00:	e1a07000 	mov	r7, r0
    2b04:	e1a05003 	mov	r5, r3
    2b08:	e1a0c00a 	mov	r12, r10
    2b0c:	e58d8010 	str	r8, [sp, #16]
    2b10:	e1a09000 	mov	r9, r0
    2b14:	0a000060 	beq	2c9c <__ieee754_pow+0x1bc>
    2b18:	e59f12d0 	ldr	r1, [pc, #720]	; 2df0 <__ieee754_pow+0x310>
    2b1c:	e3c80102 	bic	r0, r8, #-2147483648	; 0x80000000
    2b20:	e1500001 	cmp	r0, r1
    2b24:	e58d0008 	str	r0, [sp, #8]
    2b28:	da00000b 	ble	2b5c <__ieee754_pow+0x7c>
    2b2c:	e59d4008 	ldr	r4, [sp, #8]
    2b30:	e284a103 	add	r10, r4, #-1073741824	; 0xc0000000
    2b34:	e28aa601 	add	r10, r10, #1048576	; 0x100000
    2b38:	e19a9009 	orrs	r9, r10, r9
    2b3c:	01a0a009 	moveq	r10, r9
    2b40:	059fb2d4 	ldreq	r11, [pc, #724]	; 2e1c <__ieee754_pow+0x33c>
    2b44:	1a000057 	bne	2ca8 <__ieee754_pow+0x1c8>
    2b48:	e1a0000a 	mov	r0, r10
    2b4c:	e1a0100b 	mov	r1, r11
    2b50:	e28dd044 	add	sp, sp, #68	; 0x44
    2b54:	e8bd4ff0 	pop	{r4, r5, r6, r7, r8, r9, r10, r11, lr}
    2b58:	e12fff1e 	bx	lr
    2b5c:	13a00000 	movne	r0, #0
    2b60:	03a00001 	moveq	r0, #1
    2b64:	e58d0018 	str	r0, [sp, #24]
    2b68:	e3570000 	cmp	r7, #0
    2b6c:	03a00000 	moveq	r0, #0
    2b70:	12000001 	andne	r0, r0, #1
    2b74:	e3500000 	cmp	r0, #0
    2b78:	1affffeb 	bne	2b2c <__ieee754_pow+0x4c>
    2b7c:	e1560001 	cmp	r6, r1
    2b80:	caffffe9 	bgt	2b2c <__ieee754_pow+0x4c>
    2b84:	13a01000 	movne	r1, #0
    2b88:	03a01001 	moveq	r1, #1
    2b8c:	e58d1028 	str	r1, [sp, #40]	; 0x28
    2b90:	e35a0000 	cmp	r10, #0
    2b94:	03a01000 	moveq	r1, #0
    2b98:	12011001 	andne	r1, r1, #1
    2b9c:	e3510000 	cmp	r1, #0
    2ba0:	1affffe1 	bne	2b2c <__ieee754_pow+0x4c>
    2ba4:	e59d0010 	ldr	r0, [sp, #16]
    2ba8:	e3500000 	cmp	r0, #0
    2bac:	e58d8020 	str	r8, [sp, #32]
    2bb0:	e1a0400b 	mov	r4, r11
    2bb4:	ba000040 	blt	2cbc <__ieee754_pow+0x1dc>
    2bb8:	e58d1030 	str	r1, [sp, #48]	; 0x30
    2bbc:	e35c0000 	cmp	r12, #0
    2bc0:	1a00000c 	bne	2bf8 <__ieee754_pow+0x118>
    2bc4:	e59d3028 	ldr	r3, [sp, #40]	; 0x28
    2bc8:	e3530000 	cmp	r3, #0
    2bcc:	1a00004e 	bne	2d0c <__ieee754_pow+0x22c>
    2bd0:	e59f3244 	ldr	r3, [pc, #580]	; 2e1c <__ieee754_pow+0x33c>
    2bd4:	e1560003 	cmp	r6, r3
    2bd8:	0a000073 	beq	2dac <__ieee754_pow+0x2cc>
    2bdc:	e3540101 	cmp	r4, #1073741824	; 0x40000000
    2be0:	01a00007 	moveq	r0, r7
    2be4:	01a01008 	moveq	r1, r8
    2be8:	0a000025 	beq	2c84 <__ieee754_pow+0x1a4>
    2bec:	e59f3200 	ldr	r3, [pc, #512]	; 2df4 <__ieee754_pow+0x314>
    2bf0:	e1540003 	cmp	r4, r3
    2bf4:	0a0002c7 	beq	3718 <__ieee754_pow+0xc38>
    2bf8:	e1a00007 	mov	r0, r7
    2bfc:	e1a01008 	mov	r1, r8
    2c00:	eb000a1c 	bl	5478 <fabs>
    2c04:	e3590000 	cmp	r9, #0
    2c08:	1a000008 	bne	2c30 <__ieee754_pow+0x150>
    2c0c:	e59d3018 	ldr	r3, [sp, #24]
    2c10:	e59d2008 	ldr	r2, [sp, #8]
    2c14:	e3520000 	cmp	r2, #0
    2c18:	03833001 	orreq	r3, r3, #1
    2c1c:	e3530000 	cmp	r3, #0
    2c20:	1a000046 	bne	2d40 <__ieee754_pow+0x260>
    2c24:	e59f31f0 	ldr	r3, [pc, #496]	; 2e1c <__ieee754_pow+0x33c>
    2c28:	e1520003 	cmp	r2, r3
    2c2c:	0a000043 	beq	2d40 <__ieee754_pow+0x260>
    2c30:	e59d2010 	ldr	r2, [sp, #16]
    2c34:	e1a03fa2 	lsr	r3, r2, #31
    2c38:	e59d2030 	ldr	r2, [sp, #48]	; 0x30
    2c3c:	e2433001 	sub	r3, r3, #1
    2c40:	e1922003 	orrs	r2, r2, r3
    2c44:	e58d3010 	str	r3, [sp, #16]
    2c48:	0a000052 	beq	2d98 <__ieee754_pow+0x2b8>
    2c4c:	e59f31a4 	ldr	r3, [pc, #420]	; 2df8 <__ieee754_pow+0x318>
    2c50:	e1560003 	cmp	r6, r3
    2c54:	da000071 	ble	2e20 <__ieee754_pow+0x340>
    2c58:	e2833621 	add	r3, r3, #34603008	; 0x2100000
    2c5c:	e1560003 	cmp	r6, r3
    2c60:	da00030e 	ble	38a0 <__ieee754_pow+0xdc0>
    2c64:	e59d0008 	ldr	r0, [sp, #8]
    2c68:	e2433341 	sub	r3, r3, #67108865	; 0x4000001
    2c6c:	e1500003 	cmp	r0, r3
    2c70:	da0002b4 	ble	3748 <__ieee754_pow+0xc68>
    2c74:	e3540000 	cmp	r4, #0
    2c78:	da00002d 	ble	2d34 <__ieee754_pow+0x254>
    2c7c:	e28f1f59 	add	r1, pc, #356	; 0x164
    2c80:	e8910003 	ldm	r1, {r0, r1}
    2c84:	e1a02000 	mov	r2, r0
    2c88:	e1a03001 	mov	r3, r1
    2c8c:	eb000bfe 	bl	5c8c <__aeabi_dmul>
    2c90:	e1a0a000 	mov	r10, r0
    2c94:	e1a0b001 	mov	r11, r1
    2c98:	eaffffaa 	b	2b48 <__ieee754_pow+0x68>
    2c9c:	e1a0a001 	mov	r10, r1
    2ca0:	e59fb174 	ldr	r11, [pc, #372]	; 2e1c <__ieee754_pow+0x33c>
    2ca4:	eaffffa7 	b	2b48 <__ieee754_pow+0x68>
    2ca8:	e59f014c 	ldr	r0, [pc, #332]	; 2dfc <__ieee754_pow+0x31c>
    2cac:	eb000a14 	bl	5504 <nan>
    2cb0:	e1a0a000 	mov	r10, r0
    2cb4:	e1a0b001 	mov	r11, r1
    2cb8:	eaffffa2 	b	2b48 <__ieee754_pow+0x68>
    2cbc:	e59f313c 	ldr	r3, [pc, #316]	; 2e00 <__ieee754_pow+0x320>
    2cc0:	e1560003 	cmp	r6, r3
    2cc4:	ca000044 	bgt	2ddc <__ieee754_pow+0x2fc>
    2cc8:	e2433635 	sub	r3, r3, #55574528	; 0x3500000
    2ccc:	e1560003 	cmp	r6, r3
    2cd0:	daffffb8 	ble	2bb8 <__ieee754_pow+0xd8>
    2cd4:	e59f2128 	ldr	r2, [pc, #296]	; 2e04 <__ieee754_pow+0x324>
    2cd8:	e1a03a46 	asr	r3, r6, #20
    2cdc:	e1530002 	cmp	r3, r2
    2ce0:	da00034b 	ble	3a14 <__ieee754_pow+0xf34>
    2ce4:	e2633e43 	rsb	r3, r3, #1072	; 0x430
    2ce8:	e2832003 	add	r2, r3, #3
    2cec:	e1a0323a 	lsr	r3, r10, r2
    2cf0:	e15a0213 	cmp	r10, r3, lsl r2
    2cf4:	02033001 	andeq	r3, r3, #1
    2cf8:	02633002 	rsbeq	r3, r3, #2
    2cfc:	058d3030 	streq	r3, [sp, #48]	; 0x30
    2d00:	13a02000 	movne	r2, #0
    2d04:	158d2030 	strne	r2, [sp, #48]	; 0x30
    2d08:	eaffffab 	b	2bbc <__ieee754_pow+0xdc>
    2d0c:	e59d0008 	ldr	r0, [sp, #8]
    2d10:	e2803103 	add	r3, r0, #-1073741824	; 0xc0000000
    2d14:	e2833601 	add	r3, r3, #1048576	; 0x100000
    2d18:	e1933009 	orrs	r3, r3, r9
    2d1c:	0a000286 	beq	373c <__ieee754_pow+0xc5c>
    2d20:	e59f30e0 	ldr	r3, [pc, #224]	; 2e08 <__ieee754_pow+0x328>
    2d24:	e1500003 	cmp	r0, r3
    2d28:	da0002c4 	ble	3840 <__ieee754_pow+0xd60>
    2d2c:	e3540000 	cmp	r4, #0
    2d30:	aaffff84 	bge	2b48 <__ieee754_pow+0x68>
    2d34:	e3a0a000 	mov	r10, #0
    2d38:	e1a0b00a 	mov	r11, r10
    2d3c:	eaffff81 	b	2b48 <__ieee754_pow+0x68>
    2d40:	e3540000 	cmp	r4, #0
    2d44:	ba000321 	blt	39d0 <__ieee754_pow+0xef0>
    2d48:	e59d4020 	ldr	r4, [sp, #32]
    2d4c:	e3540000 	cmp	r4, #0
    2d50:	aaffffce 	bge	2c90 <__ieee754_pow+0x1b0>
    2d54:	e59d4008 	ldr	r4, [sp, #8]
    2d58:	e2843103 	add	r3, r4, #-1073741824	; 0xc0000000
    2d5c:	e59d4030 	ldr	r4, [sp, #48]	; 0x30
    2d60:	e2833601 	add	r3, r3, #1048576	; 0x100000
    2d64:	e1944003 	orrs	r4, r4, r3
    2d68:	1a000335 	bne	3a44 <__ieee754_pow+0xf64>
    2d6c:	e1a04000 	mov	r4, r0
    2d70:	e1a02000 	mov	r2, r0
    2d74:	e1a05001 	mov	r5, r1
    2d78:	e1a03001 	mov	r3, r1
    2d7c:	eb000abd 	bl	5878 <__aeabi_dsub>
    2d80:	e1a02000 	mov	r2, r0
    2d84:	e1a03001 	mov	r3, r1
    2d88:	eb000c63 	bl	5f1c <__aeabi_ddiv>
    2d8c:	e1a0a000 	mov	r10, r0
    2d90:	e1a0b001 	mov	r11, r1
    2d94:	eaffff6b 	b	2b48 <__ieee754_pow+0x68>
    2d98:	e1a00007 	mov	r0, r7
    2d9c:	e1a01008 	mov	r1, r8
    2da0:	e1a02007 	mov	r2, r7
    2da4:	e1a03008 	mov	r3, r8
    2da8:	eafffff3 	b	2d7c <__ieee754_pow+0x29c>
    2dac:	e3540000 	cmp	r4, #0
    2db0:	a1a0a007 	movge	r10, r7
    2db4:	a1a0b008 	movge	r11, r8
    2db8:	aaffff62 	bge	2b48 <__ieee754_pow+0x68>
    2dbc:	e1a02007 	mov	r2, r7
    2dc0:	e1a03008 	mov	r3, r8
    2dc4:	e3a00000 	mov	r0, #0
    2dc8:	e59f104c 	ldr	r1, [pc, #76]	; 2e1c <__ieee754_pow+0x33c>
    2dcc:	eb000c52 	bl	5f1c <__aeabi_ddiv>
    2dd0:	e1a0a000 	mov	r10, r0
    2dd4:	e1a0b001 	mov	r11, r1
    2dd8:	eaffff5a 	b	2b48 <__ieee754_pow+0x68>
    2ddc:	e3a01002 	mov	r1, #2
    2de0:	eaffff74 	b	2bb8 <__ieee754_pow+0xd8>
    2de4:	e1a00000 	nop			; (mov r0, r0)
    2de8:	8800759c 	.word	0x8800759c
    2dec:	7e37e43c 	.word	0x7e37e43c
    2df0:	7ff00000 	.word	0x7ff00000
    2df4:	3fe00000 	.word	0x3fe00000
    2df8:	41e00000 	.word	0x41e00000
    2dfc:	000077b0 	.word	0x000077b0
    2e00:	433fffff 	.word	0x433fffff
    2e04:	00000413 	.word	0x00000413
    2e08:	3fefffff 	.word	0x3fefffff
    2e0c:	43400000 	.word	0x43400000
    2e10:	0003988e 	.word	0x0003988e
    2e14:	000bb679 	.word	0x000bb679
    2e18:	00007780 	.word	0x00007780
    2e1c:	3ff00000 	.word	0x3ff00000
    2e20:	e59d4008 	ldr	r4, [sp, #8]
    2e24:	e3540601 	cmp	r4, #1048576	; 0x100000
    2e28:	a3a02000 	movge	r2, #0
    2e2c:	aa000004 	bge	2e44 <__ieee754_pow+0x364>
    2e30:	e3a02000 	mov	r2, #0
    2e34:	e51f3030 	ldr	r3, [pc, #-48]	; 2e0c <__ieee754_pow+0x32c>
    2e38:	eb000b93 	bl	5c8c <__aeabi_dmul>
    2e3c:	e58d1008 	str	r1, [sp, #8]
    2e40:	e3e02034 	mvn	r2, #52	; 0x34
    2e44:	e59d4008 	ldr	r4, [sp, #8]
    2e48:	e51fe040 	ldr	lr, [pc, #-64]	; 2e10 <__ieee754_pow+0x330>
    2e4c:	e3c434ff 	bic	r3, r4, #-16777216	; 0xff000000
    2e50:	e1a0ca44 	asr	r12, r4, #20
    2e54:	e3c3360f 	bic	r3, r3, #15728640	; 0xf00000
    2e58:	e153000e 	cmp	r3, lr
    2e5c:	e24ccfff 	sub	r12, r12, #1020	; 0x3fc
    2e60:	e24cc003 	sub	r12, r12, #3
    2e64:	e38345ff 	orr	r4, r3, #1069547520	; 0x3fc00000
    2e68:	d3a05000 	movle	r5, #0
    2e6c:	e08cc002 	add	r12, r12, r2
    2e70:	e3844603 	orr	r4, r4, #3145728	; 0x300000
    2e74:	d1a0e005 	movle	lr, r5
    2e78:	da000007 	ble	2e9c <__ieee754_pow+0x3bc>
    2e7c:	e51f2070 	ldr	r2, [pc, #-112]	; 2e14 <__ieee754_pow+0x334>
    2e80:	e1530002 	cmp	r3, r2
    2e84:	c3a05000 	movgt	r5, #0
    2e88:	c28cc001 	addgt	r12, r12, #1
    2e8c:	c2444601 	subgt	r4, r4, #1048576	; 0x100000
    2e90:	c1a0e005 	movgt	lr, r5
    2e94:	d3a05701 	movle	r5, #262144	; 0x40000
    2e98:	d3a0e001 	movle	lr, #1
    2e9c:	e51f108c 	ldr	r1, [pc, #-140]	; 2e18 <__ieee754_pow+0x338>
    2ea0:	e081118e 	add	r1, r1, lr, lsl #3
    2ea4:	e1a02000 	mov	r2, r0
    2ea8:	e58d1034 	str	r1, [sp, #52]	; 0x34
    2eac:	e8910003 	ldm	r1, {r0, r1}
    2eb0:	e1a03004 	mov	r3, r4
    2eb4:	e58d0028 	str	r0, [sp, #40]	; 0x28
    2eb8:	e58d102c 	str	r1, [sp, #44]	; 0x2c
    2ebc:	e58d2020 	str	r2, [sp, #32]
    2ec0:	e58d3024 	str	r3, [sp, #36]	; 0x24
    2ec4:	e1a00002 	mov	r0, r2
    2ec8:	e1a01004 	mov	r1, r4
    2ecc:	e28d3028 	add	r3, sp, #40	; 0x28
    2ed0:	e893000c 	ldm	r3, {r2, r3}
    2ed4:	e58dc004 	str	r12, [sp, #4]
    2ed8:	eb000a66 	bl	5878 <__aeabi_dsub>
    2edc:	e28d3028 	add	r3, sp, #40	; 0x28
    2ee0:	e893000c 	ldm	r3, {r2, r3}
    2ee4:	e1a06000 	mov	r6, r0
    2ee8:	e1a07001 	mov	r7, r1
    2eec:	e28d1020 	add	r1, sp, #32
    2ef0:	e8910003 	ldm	r1, {r0, r1}
    2ef4:	eb000a60 	bl	587c <__adddf3>
    2ef8:	e1a02000 	mov	r2, r0
    2efc:	e1a03001 	mov	r3, r1
    2f00:	e3a00000 	mov	r0, #0
    2f04:	e51f10f0 	ldr	r1, [pc, #-240]	; 2e1c <__ieee754_pow+0x33c>
    2f08:	eb000c03 	bl	5f1c <__aeabi_ddiv>
    2f0c:	e58d0038 	str	r0, [sp, #56]	; 0x38
    2f10:	e58d103c 	str	r1, [sp, #60]	; 0x3c
    2f14:	e28d3038 	add	r3, sp, #56	; 0x38
    2f18:	e893000c 	ldm	r3, {r2, r3}
    2f1c:	e1a00006 	mov	r0, r6
    2f20:	e1a01007 	mov	r1, r7
    2f24:	eb000b58 	bl	5c8c <__aeabi_dmul>
    2f28:	e58d0018 	str	r0, [sp, #24]
    2f2c:	e58d101c 	str	r1, [sp, #28]
    2f30:	e28d3018 	add	r3, sp, #24
    2f34:	e893000c 	ldm	r3, {r2, r3}
    2f38:	e1a010c4 	asr	r1, r4, #1
    2f3c:	e3a04000 	mov	r4, #0
    2f40:	e58d2008 	str	r2, [sp, #8]
    2f44:	e58d300c 	str	r3, [sp, #12]
    2f48:	e58d4008 	str	r4, [sp, #8]
    2f4c:	e28d9008 	add	r9, sp, #8
    2f50:	e8990300 	ldm	r9, {r8, r9}
    2f54:	e3811202 	orr	r1, r1, #536870912	; 0x20000000
    2f58:	e2811702 	add	r1, r1, #524288	; 0x80000
    2f5c:	e0853001 	add	r3, r5, r1
    2f60:	e3a02000 	mov	r2, #0
    2f64:	e1a00008 	mov	r0, r8
    2f68:	e1a01009 	mov	r1, r9
    2f6c:	e1a04002 	mov	r4, r2
    2f70:	e1a05003 	mov	r5, r3
    2f74:	eb000b44 	bl	5c8c <__aeabi_dmul>
    2f78:	e1a02000 	mov	r2, r0
    2f7c:	e1a03001 	mov	r3, r1
    2f80:	e1a00006 	mov	r0, r6
    2f84:	e1a01007 	mov	r1, r7
    2f88:	eb000a3a 	bl	5878 <__aeabi_dsub>
    2f8c:	e28d3028 	add	r3, sp, #40	; 0x28
    2f90:	e893000c 	ldm	r3, {r2, r3}
    2f94:	e1a06000 	mov	r6, r0
    2f98:	e1a07001 	mov	r7, r1
    2f9c:	e1a00004 	mov	r0, r4
    2fa0:	e1a01005 	mov	r1, r5
    2fa4:	eb000a33 	bl	5878 <__aeabi_dsub>
    2fa8:	e1a02000 	mov	r2, r0
    2fac:	e1a03001 	mov	r3, r1
    2fb0:	e28d1020 	add	r1, sp, #32
    2fb4:	e8910003 	ldm	r1, {r0, r1}
    2fb8:	eb000a2e 	bl	5878 <__aeabi_dsub>
    2fbc:	e1a02000 	mov	r2, r0
    2fc0:	e1a03001 	mov	r3, r1
    2fc4:	e1a00008 	mov	r0, r8
    2fc8:	e1a01009 	mov	r1, r9
    2fcc:	eb000b2e 	bl	5c8c <__aeabi_dmul>
    2fd0:	e1a02000 	mov	r2, r0
    2fd4:	e1a03001 	mov	r3, r1
    2fd8:	e1a00006 	mov	r0, r6
    2fdc:	e1a01007 	mov	r1, r7
    2fe0:	eb000a24 	bl	5878 <__aeabi_dsub>
    2fe4:	e28d3038 	add	r3, sp, #56	; 0x38
    2fe8:	e893000c 	ldm	r3, {r2, r3}
    2fec:	eb000b26 	bl	5c8c <__aeabi_dmul>
    2ff0:	e1a06000 	mov	r6, r0
    2ff4:	e1a07001 	mov	r7, r1
    2ff8:	e28d1018 	add	r1, sp, #24
    2ffc:	e8910003 	ldm	r1, {r0, r1}
    3000:	e1a02000 	mov	r2, r0
    3004:	e1a03001 	mov	r3, r1
    3008:	eb000b1f 	bl	5c8c <__aeabi_dmul>
    300c:	e1a02000 	mov	r2, r0
    3010:	e1a03001 	mov	r3, r1
    3014:	e1a04000 	mov	r4, r0
    3018:	e1a05001 	mov	r5, r1
    301c:	eb000b1a 	bl	5c8c <__aeabi_dmul>
    3020:	e28f3e3f 	add	r3, pc, #1008	; 0x3f0
    3024:	e893000c 	ldm	r3, {r2, r3}
    3028:	e58d0020 	str	r0, [sp, #32]
    302c:	e58d1024 	str	r1, [sp, #36]	; 0x24
    3030:	e1a00004 	mov	r0, r4
    3034:	e1a01005 	mov	r1, r5
    3038:	eb000b13 	bl	5c8c <__aeabi_dmul>
    303c:	e28f3ff7 	add	r3, pc, #988	; 0x3dc
    3040:	e893000c 	ldm	r3, {r2, r3}
    3044:	eb000a0c 	bl	587c <__adddf3>
    3048:	e1a02004 	mov	r2, r4
    304c:	e1a03005 	mov	r3, r5
    3050:	eb000b0d 	bl	5c8c <__aeabi_dmul>
    3054:	e28f3ff3 	add	r3, pc, #972	; 0x3cc
    3058:	e893000c 	ldm	r3, {r2, r3}
    305c:	eb000a06 	bl	587c <__adddf3>
    3060:	e1a02004 	mov	r2, r4
    3064:	e1a03005 	mov	r3, r5
    3068:	eb000b07 	bl	5c8c <__aeabi_dmul>
    306c:	e28f3fef 	add	r3, pc, #956	; 0x3bc
    3070:	e893000c 	ldm	r3, {r2, r3}
    3074:	eb000a00 	bl	587c <__adddf3>
    3078:	e1a02004 	mov	r2, r4
    307c:	e1a03005 	mov	r3, r5
    3080:	eb000b01 	bl	5c8c <__aeabi_dmul>
    3084:	e28f3feb 	add	r3, pc, #940	; 0x3ac
    3088:	e893000c 	ldm	r3, {r2, r3}
    308c:	eb0009fa 	bl	587c <__adddf3>
    3090:	e1a02004 	mov	r2, r4
    3094:	e1a03005 	mov	r3, r5
    3098:	eb000afb 	bl	5c8c <__aeabi_dmul>
    309c:	e28f3fe7 	add	r3, pc, #924	; 0x39c
    30a0:	e893000c 	ldm	r3, {r2, r3}
    30a4:	eb0009f4 	bl	587c <__adddf3>
    30a8:	e1a02000 	mov	r2, r0
    30ac:	e1a03001 	mov	r3, r1
    30b0:	e28d1020 	add	r1, sp, #32
    30b4:	e8910003 	ldm	r1, {r0, r1}
    30b8:	eb000af3 	bl	5c8c <__aeabi_dmul>
    30bc:	e28d3018 	add	r3, sp, #24
    30c0:	e893000c 	ldm	r3, {r2, r3}
    30c4:	e1a04000 	mov	r4, r0
    30c8:	e1a05001 	mov	r5, r1
    30cc:	e1a00008 	mov	r0, r8
    30d0:	e1a01009 	mov	r1, r9
    30d4:	eb0009e8 	bl	587c <__adddf3>
    30d8:	e1a02006 	mov	r2, r6
    30dc:	e1a03007 	mov	r3, r7
    30e0:	eb000ae9 	bl	5c8c <__aeabi_dmul>
    30e4:	e1a02004 	mov	r2, r4
    30e8:	e1a03005 	mov	r3, r5
    30ec:	eb0009e2 	bl	587c <__adddf3>
    30f0:	e1a02008 	mov	r2, r8
    30f4:	e58d0020 	str	r0, [sp, #32]
    30f8:	e58d1024 	str	r1, [sp, #36]	; 0x24
    30fc:	e1a03009 	mov	r3, r9
    3100:	e1a00008 	mov	r0, r8
    3104:	e1a01009 	mov	r1, r9
    3108:	eb000adf 	bl	5c8c <__aeabi_dmul>
    310c:	e3a02000 	mov	r2, #0
    3110:	e59f3348 	ldr	r3, [pc, #840]	; 3460 <__ieee754_pow+0x980>
    3114:	e58d0028 	str	r0, [sp, #40]	; 0x28
    3118:	e58d102c 	str	r1, [sp, #44]	; 0x2c
    311c:	eb0009d6 	bl	587c <__adddf3>
    3120:	e28d3020 	add	r3, sp, #32
    3124:	e893000c 	ldm	r3, {r2, r3}
    3128:	eb0009d3 	bl	587c <__adddf3>
    312c:	e59de008 	ldr	lr, [sp, #8]
    3130:	e1a05001 	mov	r5, r1
    3134:	e1a0200e 	mov	r2, lr
    3138:	e1a03005 	mov	r3, r5
    313c:	e1a00008 	mov	r0, r8
    3140:	e1a01009 	mov	r1, r9
    3144:	e1a0400e 	mov	r4, lr
    3148:	eb000acf 	bl	5c8c <__aeabi_dmul>
    314c:	e1a02004 	mov	r2, r4
    3150:	e1a08000 	mov	r8, r0
    3154:	e1a09001 	mov	r9, r1
    3158:	e1a03005 	mov	r3, r5
    315c:	e1a00006 	mov	r0, r6
    3160:	e1a01007 	mov	r1, r7
    3164:	eb000ac8 	bl	5c8c <__aeabi_dmul>
    3168:	e3a02000 	mov	r2, #0
    316c:	e1a06000 	mov	r6, r0
    3170:	e1a07001 	mov	r7, r1
    3174:	e1a00004 	mov	r0, r4
    3178:	e1a01005 	mov	r1, r5
    317c:	e59f32dc 	ldr	r3, [pc, #732]	; 3460 <__ieee754_pow+0x980>
    3180:	eb0009bc 	bl	5878 <__aeabi_dsub>
    3184:	e28d3028 	add	r3, sp, #40	; 0x28
    3188:	e893000c 	ldm	r3, {r2, r3}
    318c:	eb0009b9 	bl	5878 <__aeabi_dsub>
    3190:	e1a02000 	mov	r2, r0
    3194:	e1a03001 	mov	r3, r1
    3198:	e28d1020 	add	r1, sp, #32
    319c:	e8910003 	ldm	r1, {r0, r1}
    31a0:	eb0009b4 	bl	5878 <__aeabi_dsub>
    31a4:	e28d3018 	add	r3, sp, #24
    31a8:	e893000c 	ldm	r3, {r2, r3}
    31ac:	eb000ab6 	bl	5c8c <__aeabi_dmul>
    31b0:	e1a02000 	mov	r2, r0
    31b4:	e1a03001 	mov	r3, r1
    31b8:	e1a00006 	mov	r0, r6
    31bc:	e1a01007 	mov	r1, r7
    31c0:	eb0009ad 	bl	587c <__adddf3>
    31c4:	e1a06000 	mov	r6, r0
    31c8:	e1a07001 	mov	r7, r1
    31cc:	e1a02006 	mov	r2, r6
    31d0:	e1a03007 	mov	r3, r7
    31d4:	e1a00008 	mov	r0, r8
    31d8:	e1a01009 	mov	r1, r9
    31dc:	eb0009a6 	bl	587c <__adddf3>
    31e0:	e59d2008 	ldr	r2, [sp, #8]
    31e4:	e59f3278 	ldr	r3, [pc, #632]	; 3464 <__ieee754_pow+0x984>
    31e8:	e1a04002 	mov	r4, r2
    31ec:	e1a00002 	mov	r0, r2
    31f0:	e3a0220e 	mov	r2, #-536870912	; 0xe0000000
    31f4:	e1a05001 	mov	r5, r1
    31f8:	eb000aa3 	bl	5c8c <__aeabi_dmul>
    31fc:	e28f3f91 	add	r3, pc, #580	; 0x244
    3200:	e893000c 	ldm	r3, {r2, r3}
    3204:	e58d0018 	str	r0, [sp, #24]
    3208:	e58d101c 	str	r1, [sp, #28]
    320c:	e1a00004 	mov	r0, r4
    3210:	e1a01005 	mov	r1, r5
    3214:	eb000a9c 	bl	5c8c <__aeabi_dmul>
    3218:	e1a02008 	mov	r2, r8
    321c:	e58d0020 	str	r0, [sp, #32]
    3220:	e58d1024 	str	r1, [sp, #36]	; 0x24
    3224:	e1a03009 	mov	r3, r9
    3228:	e1a00004 	mov	r0, r4
    322c:	e1a01005 	mov	r1, r5
    3230:	eb000990 	bl	5878 <__aeabi_dsub>
    3234:	e1a02000 	mov	r2, r0
    3238:	e1a03001 	mov	r3, r1
    323c:	e1a00006 	mov	r0, r6
    3240:	e1a01007 	mov	r1, r7
    3244:	eb00098b 	bl	5878 <__aeabi_dsub>
    3248:	e28f3c02 	add	r3, pc, #512	; 0x200
    324c:	e893000c 	ldm	r3, {r2, r3}
    3250:	eb000a8d 	bl	5c8c <__aeabi_dmul>
    3254:	e1a02000 	mov	r2, r0
    3258:	e1a03001 	mov	r3, r1
    325c:	e28d1020 	add	r1, sp, #32
    3260:	e8910003 	ldm	r1, {r0, r1}
    3264:	eb000984 	bl	587c <__adddf3>
    3268:	e59d4034 	ldr	r4, [sp, #52]	; 0x34
    326c:	e2843010 	add	r3, r4, #16
    3270:	e893000c 	ldm	r3, {r2, r3}
    3274:	eb000980 	bl	587c <__adddf3>
    3278:	e59dc004 	ldr	r12, [sp, #4]
    327c:	e1a04000 	mov	r4, r0
    3280:	e1a0000c 	mov	r0, r12
    3284:	e1a05001 	mov	r5, r1
    3288:	eb000a48 	bl	5bb0 <__aeabi_i2d>
    328c:	e59de034 	ldr	lr, [sp, #52]	; 0x34
    3290:	e28e9020 	add	r9, lr, #32
    3294:	e8990300 	ldm	r9, {r8, r9}
    3298:	e1a06000 	mov	r6, r0
    329c:	e1a07001 	mov	r7, r1
    32a0:	e1a02004 	mov	r2, r4
    32a4:	e28d1018 	add	r1, sp, #24
    32a8:	e8910003 	ldm	r1, {r0, r1}
    32ac:	e1a03005 	mov	r3, r5
    32b0:	eb000971 	bl	587c <__adddf3>
    32b4:	e1a02008 	mov	r2, r8
    32b8:	e1a03009 	mov	r3, r9
    32bc:	eb00096e 	bl	587c <__adddf3>
    32c0:	e1a02006 	mov	r2, r6
    32c4:	e1a03007 	mov	r3, r7
    32c8:	eb00096b 	bl	587c <__adddf3>
    32cc:	e59d2008 	ldr	r2, [sp, #8]
    32d0:	e1a03007 	mov	r3, r7
    32d4:	e1a00002 	mov	r0, r2
    32d8:	e1a02006 	mov	r2, r6
    32dc:	e58d0008 	str	r0, [sp, #8]
    32e0:	e58d100c 	str	r1, [sp, #12]
    32e4:	eb000963 	bl	5878 <__aeabi_dsub>
    32e8:	e1a02008 	mov	r2, r8
    32ec:	e1a03009 	mov	r3, r9
    32f0:	eb000960 	bl	5878 <__aeabi_dsub>
    32f4:	e28d3018 	add	r3, sp, #24
    32f8:	e893000c 	ldm	r3, {r2, r3}
    32fc:	eb00095d 	bl	5878 <__aeabi_dsub>
    3300:	e1a03001 	mov	r3, r1
    3304:	e1a02000 	mov	r2, r0
    3308:	e1a01005 	mov	r1, r5
    330c:	e1a00004 	mov	r0, r4
    3310:	eb000958 	bl	5878 <__aeabi_dsub>
    3314:	e59d4030 	ldr	r4, [sp, #48]	; 0x30
    3318:	e2443001 	sub	r3, r4, #1
    331c:	e59d4010 	ldr	r4, [sp, #16]
    3320:	e1934004 	orrs	r4, r3, r4
    3324:	e1a08000 	mov	r8, r0
    3328:	e1a09001 	mov	r9, r1
    332c:	1a00013e 	bne	382c <__ieee754_pow+0xd4c>
    3330:	e59f1130 	ldr	r1, [pc, #304]	; 3468 <__ieee754_pow+0x988>
    3334:	e3a00000 	mov	r0, #0
    3338:	e58d0010 	str	r0, [sp, #16]
    333c:	e58d1014 	str	r1, [sp, #20]
    3340:	e3a06000 	mov	r6, #0
    3344:	e1a02006 	mov	r2, r6
    3348:	e1a0300b 	mov	r3, r11
    334c:	e1a0000a 	mov	r0, r10
    3350:	e1a0100b 	mov	r1, r11
    3354:	eb000947 	bl	5878 <__aeabi_dsub>
    3358:	e28d3008 	add	r3, sp, #8
    335c:	e893000c 	ldm	r3, {r2, r3}
    3360:	eb000a49 	bl	5c8c <__aeabi_dmul>
    3364:	e1a03009 	mov	r3, r9
    3368:	e1a04000 	mov	r4, r0
    336c:	e1a05001 	mov	r5, r1
    3370:	e1a0000a 	mov	r0, r10
    3374:	e1a0100b 	mov	r1, r11
    3378:	e1a02008 	mov	r2, r8
    337c:	eb000a42 	bl	5c8c <__aeabi_dmul>
    3380:	e1a02000 	mov	r2, r0
    3384:	e1a03001 	mov	r3, r1
    3388:	e1a00004 	mov	r0, r4
    338c:	e1a01005 	mov	r1, r5
    3390:	eb000939 	bl	587c <__adddf3>
    3394:	e1a0700b 	mov	r7, r11
    3398:	e28d3008 	add	r3, sp, #8
    339c:	e893000c 	ldm	r3, {r2, r3}
    33a0:	e1a0a000 	mov	r10, r0
    33a4:	e1a0b001 	mov	r11, r1
    33a8:	e1a00006 	mov	r0, r6
    33ac:	e1a01007 	mov	r1, r7
    33b0:	eb000a35 	bl	5c8c <__aeabi_dmul>
    33b4:	e1a04000 	mov	r4, r0
    33b8:	e1a05001 	mov	r5, r1
    33bc:	e1a0000a 	mov	r0, r10
    33c0:	e1a0100b 	mov	r1, r11
    33c4:	e1a02004 	mov	r2, r4
    33c8:	e1a03005 	mov	r3, r5
    33cc:	eb00092a 	bl	587c <__adddf3>
    33d0:	e59fc094 	ldr	r12, [pc, #148]	; 346c <__ieee754_pow+0x98c>
    33d4:	e151000c 	cmp	r1, r12
    33d8:	e1a06000 	mov	r6, r0
    33dc:	e1a07001 	mov	r7, r1
    33e0:	e1a09001 	mov	r9, r1
    33e4:	da0000da 	ble	3754 <__ieee754_pow+0xc74>
    33e8:	e28134bf 	add	r3, r1, #-1090519040	; 0xbf000000
    33ec:	e2833607 	add	r3, r3, #7340032	; 0x700000
    33f0:	e1933000 	orrs	r3, r3, r0
    33f4:	1a00017b 	bne	39e8 <__ieee754_pow+0xf08>
    33f8:	e28f3058 	add	r3, pc, #88	; 0x58
    33fc:	e893000c 	ldm	r3, {r2, r3}
    3400:	e1a0000a 	mov	r0, r10
    3404:	e1a0100b 	mov	r1, r11
    3408:	eb00091b 	bl	587c <__adddf3>
    340c:	e1a02004 	mov	r2, r4
    3410:	ea000018 	b	3478 <__ieee754_pow+0x998>
    3414:	e1a00000 	nop			; (mov r0, r0)
    3418:	4a454eef 	.word	0x4a454eef
    341c:	3fca7e28 	.word	0x3fca7e28
    3420:	93c9db65 	.word	0x93c9db65
    3424:	3fcd864a 	.word	0x3fcd864a
    3428:	a91d4101 	.word	0xa91d4101
    342c:	3fd17460 	.word	0x3fd17460
    3430:	518f264d 	.word	0x518f264d
    3434:	3fd55555 	.word	0x3fd55555
    3438:	db6fabff 	.word	0xdb6fabff
    343c:	3fdb6db6 	.word	0x3fdb6db6
    3440:	33333303 	.word	0x33333303
    3444:	3fe33333 	.word	0x3fe33333
    3448:	145b01f5 	.word	0x145b01f5
    344c:	be3e2fe0 	.word	0xbe3e2fe0
    3450:	dc3a03fd 	.word	0xdc3a03fd
    3454:	3feec709 	.word	0x3feec709
    3458:	652b82fe 	.word	0x652b82fe
    345c:	3c971547 	.word	0x3c971547
    3460:	40080000 	.word	0x40080000
    3464:	3feec709 	.word	0x3feec709
    3468:	bff00000 	.word	0xbff00000
    346c:	408fffff 	.word	0x408fffff
    3470:	3fe00000 	.word	0x3fe00000
    3474:	3fe62e43 	.word	0x3fe62e43
    3478:	e58d0008 	str	r0, [sp, #8]
    347c:	e58d100c 	str	r1, [sp, #12]
    3480:	e1a03005 	mov	r3, r5
    3484:	e1a00006 	mov	r0, r6
    3488:	e1a01007 	mov	r1, r7
    348c:	eb0008f9 	bl	5878 <__aeabi_dsub>
    3490:	e1a02000 	mov	r2, r0
    3494:	e1a03001 	mov	r3, r1
    3498:	e28d1008 	add	r1, sp, #8
    349c:	e8910003 	ldm	r1, {r0, r1}
    34a0:	eb000b6b 	bl	6254 <__aeabi_dcmpgt>
    34a4:	e3500000 	cmp	r0, #0
    34a8:	03c78102 	biceq	r8, r7, #-2147483648	; 0x80000000
    34ac:	1a00014d 	bne	39e8 <__ieee754_pow+0xf08>
    34b0:	e51f3048 	ldr	r3, [pc, #-72]	; 3470 <__ieee754_pow+0x990>
    34b4:	e1580003 	cmp	r8, r3
    34b8:	d3a0c000 	movle	r12, #0
    34bc:	d58dc008 	strle	r12, [sp, #8]
    34c0:	ca0000b5 	bgt	379c <__ieee754_pow+0xcbc>
    34c4:	e3a06000 	mov	r6, #0
    34c8:	e1a00006 	mov	r0, r6
    34cc:	e1a01007 	mov	r1, r7
    34d0:	e3a02000 	mov	r2, #0
    34d4:	e51f3068 	ldr	r3, [pc, #-104]	; 3474 <__ieee754_pow+0x994>
    34d8:	e58dc004 	str	r12, [sp, #4]
    34dc:	eb0009ea 	bl	5c8c <__aeabi_dmul>
    34e0:	e1a02004 	mov	r2, r4
    34e4:	e1a08000 	mov	r8, r0
    34e8:	e1a09001 	mov	r9, r1
    34ec:	e1a03005 	mov	r3, r5
    34f0:	e1a00006 	mov	r0, r6
    34f4:	e1a01007 	mov	r1, r7
    34f8:	eb0008de 	bl	5878 <__aeabi_dsub>
    34fc:	e1a02000 	mov	r2, r0
    3500:	e1a03001 	mov	r3, r1
    3504:	e1a0000a 	mov	r0, r10
    3508:	e1a0100b 	mov	r1, r11
    350c:	eb0008d9 	bl	5878 <__aeabi_dsub>
    3510:	e28f3fce 	add	r3, pc, #824	; 0x338
    3514:	e893000c 	ldm	r3, {r2, r3}
    3518:	eb0009db 	bl	5c8c <__aeabi_dmul>
    351c:	e28f3fcd 	add	r3, pc, #820	; 0x334
    3520:	e893000c 	ldm	r3, {r2, r3}
    3524:	e1a04000 	mov	r4, r0
    3528:	e1a05001 	mov	r5, r1
    352c:	e1a00006 	mov	r0, r6
    3530:	e1a01007 	mov	r1, r7
    3534:	eb0009d4 	bl	5c8c <__aeabi_dmul>
    3538:	e1a02000 	mov	r2, r0
    353c:	e1a03001 	mov	r3, r1
    3540:	e1a00004 	mov	r0, r4
    3544:	e1a01005 	mov	r1, r5
    3548:	eb0008cb 	bl	587c <__adddf3>
    354c:	e1a04000 	mov	r4, r0
    3550:	e1a05001 	mov	r5, r1
    3554:	e1a02004 	mov	r2, r4
    3558:	e1a03005 	mov	r3, r5
    355c:	e1a00008 	mov	r0, r8
    3560:	e1a01009 	mov	r1, r9
    3564:	eb0008c4 	bl	587c <__adddf3>
    3568:	e1a02008 	mov	r2, r8
    356c:	e1a03009 	mov	r3, r9
    3570:	e1a0a000 	mov	r10, r0
    3574:	e1a0b001 	mov	r11, r1
    3578:	eb0008be 	bl	5878 <__aeabi_dsub>
    357c:	e1a02000 	mov	r2, r0
    3580:	e1a03001 	mov	r3, r1
    3584:	e1a00004 	mov	r0, r4
    3588:	e1a01005 	mov	r1, r5
    358c:	eb0008b9 	bl	5878 <__aeabi_dsub>
    3590:	e1a0200a 	mov	r2, r10
    3594:	e1a08000 	mov	r8, r0
    3598:	e1a09001 	mov	r9, r1
    359c:	e1a0300b 	mov	r3, r11
    35a0:	e1a0000a 	mov	r0, r10
    35a4:	e1a0100b 	mov	r1, r11
    35a8:	eb0009b7 	bl	5c8c <__aeabi_dmul>
    35ac:	e28f3fab 	add	r3, pc, #684	; 0x2ac
    35b0:	e893000c 	ldm	r3, {r2, r3}
    35b4:	e1a04000 	mov	r4, r0
    35b8:	e1a05001 	mov	r5, r1
    35bc:	eb0009b2 	bl	5c8c <__aeabi_dmul>
    35c0:	e28f3e2a 	add	r3, pc, #672	; 0x2a0
    35c4:	e893000c 	ldm	r3, {r2, r3}
    35c8:	eb0008aa 	bl	5878 <__aeabi_dsub>
    35cc:	e1a02004 	mov	r2, r4
    35d0:	e1a03005 	mov	r3, r5
    35d4:	eb0009ac 	bl	5c8c <__aeabi_dmul>
    35d8:	e28f3e29 	add	r3, pc, #656	; 0x290
    35dc:	e893000c 	ldm	r3, {r2, r3}
    35e0:	eb0008a5 	bl	587c <__adddf3>
    35e4:	e1a02004 	mov	r2, r4
    35e8:	e1a03005 	mov	r3, r5
    35ec:	eb0009a6 	bl	5c8c <__aeabi_dmul>
    35f0:	e28f3d0a 	add	r3, pc, #640	; 0x280
    35f4:	e893000c 	ldm	r3, {r2, r3}
    35f8:	eb00089e 	bl	5878 <__aeabi_dsub>
    35fc:	e1a02004 	mov	r2, r4
    3600:	e1a03005 	mov	r3, r5
    3604:	eb0009a0 	bl	5c8c <__aeabi_dmul>
    3608:	e28f3e27 	add	r3, pc, #624	; 0x270
    360c:	e893000c 	ldm	r3, {r2, r3}
    3610:	eb000899 	bl	587c <__adddf3>
    3614:	e1a02004 	mov	r2, r4
    3618:	e1a03005 	mov	r3, r5
    361c:	eb00099a 	bl	5c8c <__aeabi_dmul>
    3620:	e1a02000 	mov	r2, r0
    3624:	e1a03001 	mov	r3, r1
    3628:	e1a0000a 	mov	r0, r10
    362c:	e1a0100b 	mov	r1, r11
    3630:	eb000890 	bl	5878 <__aeabi_dsub>
    3634:	e1a04000 	mov	r4, r0
    3638:	e1a05001 	mov	r5, r1
    363c:	e1a02004 	mov	r2, r4
    3640:	e1a03005 	mov	r3, r5
    3644:	e1a0000a 	mov	r0, r10
    3648:	e1a0100b 	mov	r1, r11
    364c:	eb00098e 	bl	5c8c <__aeabi_dmul>
    3650:	e3a02000 	mov	r2, #0
    3654:	e1a06000 	mov	r6, r0
    3658:	e1a07001 	mov	r7, r1
    365c:	e1a00004 	mov	r0, r4
    3660:	e1a01005 	mov	r1, r5
    3664:	e3a03101 	mov	r3, #1073741824	; 0x40000000
    3668:	eb000882 	bl	5878 <__aeabi_dsub>
    366c:	e1a02000 	mov	r2, r0
    3670:	e1a03001 	mov	r3, r1
    3674:	e1a00006 	mov	r0, r6
    3678:	e1a01007 	mov	r1, r7
    367c:	eb000a26 	bl	5f1c <__aeabi_ddiv>
    3680:	e1a02008 	mov	r2, r8
    3684:	e1a04000 	mov	r4, r0
    3688:	e1a05001 	mov	r5, r1
    368c:	e1a03009 	mov	r3, r9
    3690:	e1a0000a 	mov	r0, r10
    3694:	e1a0100b 	mov	r1, r11
    3698:	eb00097b 	bl	5c8c <__aeabi_dmul>
    369c:	e1a02008 	mov	r2, r8
    36a0:	e1a03009 	mov	r3, r9
    36a4:	eb000874 	bl	587c <__adddf3>
    36a8:	e1a02000 	mov	r2, r0
    36ac:	e1a03001 	mov	r3, r1
    36b0:	e1a00004 	mov	r0, r4
    36b4:	e1a01005 	mov	r1, r5
    36b8:	eb00086e 	bl	5878 <__aeabi_dsub>
    36bc:	e1a0200a 	mov	r2, r10
    36c0:	e1a0300b 	mov	r3, r11
    36c4:	eb00086b 	bl	5878 <__aeabi_dsub>
    36c8:	e1a02000 	mov	r2, r0
    36cc:	e1a03001 	mov	r3, r1
    36d0:	e3a00000 	mov	r0, #0
    36d4:	e59f11bc 	ldr	r1, [pc, #444]	; 3898 <__ieee754_pow+0xdb8>
    36d8:	eb000866 	bl	5878 <__aeabi_dsub>
    36dc:	e59dc004 	ldr	r12, [sp, #4]
    36e0:	e08ce001 	add	lr, r12, r1
    36e4:	e35e0601 	cmp	lr, #1048576	; 0x100000
    36e8:	e1a03001 	mov	r3, r1
    36ec:	e1a02000 	mov	r2, r0
    36f0:	e1a04000 	mov	r4, r0
    36f4:	e1a05001 	mov	r5, r1
    36f8:	a1a0300e 	movge	r3, lr
    36fc:	ba0000e4 	blt	3a94 <__ieee754_pow+0xfb4>
    3700:	e28d1010 	add	r1, sp, #16
    3704:	e8910003 	ldm	r1, {r0, r1}
    3708:	eb00095f 	bl	5c8c <__aeabi_dmul>
    370c:	e1a0a000 	mov	r10, r0
    3710:	e1a0b001 	mov	r11, r1
    3714:	eafffd0b 	b	2b48 <__ieee754_pow+0x68>
    3718:	e59d1020 	ldr	r1, [sp, #32]
    371c:	e3510000 	cmp	r1, #0
    3720:	bafffd34 	blt	2bf8 <__ieee754_pow+0x118>
    3724:	e1a00007 	mov	r0, r7
    3728:	e1a01008 	mov	r1, r8
    372c:	eb000281 	bl	4138 <__ieee754_sqrt>
    3730:	e1a0a000 	mov	r10, r0
    3734:	e1a0b001 	mov	r11, r1
    3738:	eafffd02 	b	2b48 <__ieee754_pow+0x68>
    373c:	e1a0a003 	mov	r10, r3
    3740:	e59fb150 	ldr	r11, [pc, #336]	; 3898 <__ieee754_pow+0xdb8>
    3744:	eafffcff 	b	2b48 <__ieee754_pow+0x68>
    3748:	e3540000 	cmp	r4, #0
    374c:	aafffd78 	bge	2d34 <__ieee754_pow+0x254>
    3750:	eafffd49 	b	2c7c <__ieee754_pow+0x19c>
    3754:	e59f312c 	ldr	r3, [pc, #300]	; 3888 <__ieee754_pow+0xda8>
    3758:	e3c18102 	bic	r8, r1, #-2147483648	; 0x80000000
    375c:	e1580003 	cmp	r8, r3
    3760:	daffff52 	ble	34b0 <__ieee754_pow+0x9d0>
    3764:	e59f3120 	ldr	r3, [pc, #288]	; 388c <__ieee754_pow+0xdac>
    3768:	e0813003 	add	r3, r1, r3
    376c:	e1933000 	orrs	r3, r3, r0
    3770:	1a0000b9 	bne	3a5c <__ieee754_pow+0xf7c>
    3774:	e1a02004 	mov	r2, r4
    3778:	e1a03005 	mov	r3, r5
    377c:	eb00083d 	bl	5878 <__aeabi_dsub>
    3780:	e1a02000 	mov	r2, r0
    3784:	e1a03001 	mov	r3, r1
    3788:	e1a0000a 	mov	r0, r10
    378c:	e1a0100b 	mov	r1, r11
    3790:	eb000aa3 	bl	6224 <__aeabi_dcmple>
    3794:	e3500000 	cmp	r0, #0
    3798:	1a0000af 	bne	3a5c <__ieee754_pow+0xf7c>
    379c:	e1a03a48 	asr	r3, r8, #20
    37a0:	e2433fff 	sub	r3, r3, #1020	; 0x3fc
    37a4:	e2433002 	sub	r3, r3, #2
    37a8:	e3a01601 	mov	r1, #1048576	; 0x100000
    37ac:	e0891351 	add	r1, r9, r1, asr r3
    37b0:	e3c10102 	bic	r0, r1, #-2147483648	; 0x80000000
    37b4:	e1a00a40 	asr	r0, r0, #20
    37b8:	e240efff 	sub	lr, r0, #1020	; 0x3fc
    37bc:	e59f60cc 	ldr	r6, [pc, #204]	; 3890 <__ieee754_pow+0xdb0>
    37c0:	e24ee003 	sub	lr, lr, #3
    37c4:	e1c13e56 	bic	r3, r1, r6, asr lr
    37c8:	e3c114ff 	bic	r1, r1, #-16777216	; 0xff000000
    37cc:	e3c1e60f 	bic	lr, r1, #15728640	; 0xf00000
    37d0:	e2601e41 	rsb	r1, r0, #1040	; 0x410
    37d4:	e38ee601 	orr	lr, lr, #1048576	; 0x100000
    37d8:	e2811003 	add	r1, r1, #3
    37dc:	e1a0115e 	asr	r1, lr, r1
    37e0:	e3590000 	cmp	r9, #0
    37e4:	e58d1008 	str	r1, [sp, #8]
    37e8:	b2611000 	rsblt	r1, r1, #0
    37ec:	b58d1008 	strlt	r1, [sp, #8]
    37f0:	e3a02000 	mov	r2, #0
    37f4:	e1a00004 	mov	r0, r4
    37f8:	e1a01005 	mov	r1, r5
    37fc:	eb00081d 	bl	5878 <__aeabi_dsub>
    3800:	e1a04000 	mov	r4, r0
    3804:	e1a05001 	mov	r5, r1
    3808:	e1a02004 	mov	r2, r4
    380c:	e1a0000a 	mov	r0, r10
    3810:	e1a0100b 	mov	r1, r11
    3814:	e1a03005 	mov	r3, r5
    3818:	eb000817 	bl	587c <__adddf3>
    381c:	e59d2008 	ldr	r2, [sp, #8]
    3820:	e1a07001 	mov	r7, r1
    3824:	e1a0ca02 	lsl	r12, r2, #20
    3828:	eaffff25 	b	34c4 <__ieee754_pow+0x9e4>
    382c:	e59f2064 	ldr	r2, [pc, #100]	; 3898 <__ieee754_pow+0xdb8>
    3830:	e3a01000 	mov	r1, #0
    3834:	e58d1010 	str	r1, [sp, #16]
    3838:	e58d2014 	str	r2, [sp, #20]
    383c:	eafffebf 	b	3340 <__ieee754_pow+0x860>
    3840:	e3540000 	cmp	r4, #0
    3844:	b28bb102 	addlt	r11, r11, #-2147483648	; 0x80000000
    3848:	aafffd39 	bge	2d34 <__ieee754_pow+0x254>
    384c:	eafffcbd 	b	2b48 <__ieee754_pow+0x68>
    3850:	fefa39ef 	.word	0xfefa39ef
    3854:	3fe62e42 	.word	0x3fe62e42
    3858:	0ca86c39 	.word	0x0ca86c39
    385c:	be205c61 	.word	0xbe205c61
    3860:	72bea4d0 	.word	0x72bea4d0
    3864:	3e663769 	.word	0x3e663769
    3868:	c5d26bf1 	.word	0xc5d26bf1
    386c:	3ebbbd41 	.word	0x3ebbbd41
    3870:	af25de2c 	.word	0xaf25de2c
    3874:	3f11566a 	.word	0x3f11566a
    3878:	16bebd93 	.word	0x16bebd93
    387c:	3f66c16c 	.word	0x3f66c16c
    3880:	5555553e 	.word	0x5555553e
    3884:	3fc55555 	.word	0x3fc55555
    3888:	4090cbff 	.word	0x4090cbff
    388c:	3f6f3400 	.word	0x3f6f3400
    3890:	000fffff 	.word	0x000fffff
    3894:	3feffffe 	.word	0x3feffffe
    3898:	3ff00000 	.word	0x3ff00000
    389c:	3ff71547 	.word	0x3ff71547
    38a0:	e51f3014 	ldr	r3, [pc, #-20]	; 3894 <__ieee754_pow+0xdb4>
    38a4:	e59d2008 	ldr	r2, [sp, #8]
    38a8:	e1520003 	cmp	r2, r3
    38ac:	daffffa5 	ble	3748 <__ieee754_pow+0xc68>
    38b0:	e51f3020 	ldr	r3, [pc, #-32]	; 3898 <__ieee754_pow+0xdb8>
    38b4:	e59d2008 	ldr	r2, [sp, #8]
    38b8:	e1520003 	cmp	r2, r3
    38bc:	cafffcec 	bgt	2c74 <__ieee754_pow+0x194>
    38c0:	e3a02000 	mov	r2, #0
    38c4:	e51f3034 	ldr	r3, [pc, #-52]	; 3898 <__ieee754_pow+0xdb8>
    38c8:	eb0007ea 	bl	5878 <__aeabi_dsub>
    38cc:	e3a02206 	mov	r2, #1610612736	; 0x60000000
    38d0:	e51f303c 	ldr	r3, [pc, #-60]	; 389c <__ieee754_pow+0xdbc>
    38d4:	e1a04000 	mov	r4, r0
    38d8:	e1a05001 	mov	r5, r1
    38dc:	eb0008ea 	bl	5c8c <__aeabi_dmul>
    38e0:	e28f3d07 	add	r3, pc, #448	; 0x1c0
    38e4:	e893000c 	ldm	r3, {r2, r3}
    38e8:	e1a06000 	mov	r6, r0
    38ec:	e1a07001 	mov	r7, r1
    38f0:	e1a00004 	mov	r0, r4
    38f4:	e1a01005 	mov	r1, r5
    38f8:	eb0008e3 	bl	5c8c <__aeabi_dmul>
    38fc:	e1a02004 	mov	r2, r4
    3900:	e58d0008 	str	r0, [sp, #8]
    3904:	e58d100c 	str	r1, [sp, #12]
    3908:	e1a03005 	mov	r3, r5
    390c:	e1a00004 	mov	r0, r4
    3910:	e1a01005 	mov	r1, r5
    3914:	eb0008dc 	bl	5c8c <__aeabi_dmul>
    3918:	e3a02000 	mov	r2, #0
    391c:	e1a08000 	mov	r8, r0
    3920:	e1a09001 	mov	r9, r1
    3924:	e1a00004 	mov	r0, r4
    3928:	e1a01005 	mov	r1, r5
    392c:	e59f319c 	ldr	r3, [pc, #412]	; 3ad0 <__ieee754_pow+0xff0>
    3930:	eb0008d5 	bl	5c8c <__aeabi_dmul>
    3934:	e1a02000 	mov	r2, r0
    3938:	e1a03001 	mov	r3, r1
    393c:	e28f1f5b 	add	r1, pc, #364	; 0x16c
    3940:	e8910003 	ldm	r1, {r0, r1}
    3944:	eb0007cb 	bl	5878 <__aeabi_dsub>
    3948:	e1a02004 	mov	r2, r4
    394c:	e1a03005 	mov	r3, r5
    3950:	eb0008cd 	bl	5c8c <__aeabi_dmul>
    3954:	e1a02000 	mov	r2, r0
    3958:	e1a03001 	mov	r3, r1
    395c:	e3a00000 	mov	r0, #0
    3960:	e59f116c 	ldr	r1, [pc, #364]	; 3ad4 <__ieee754_pow+0xff4>
    3964:	eb0007c3 	bl	5878 <__aeabi_dsub>
    3968:	e1a02000 	mov	r2, r0
    396c:	e1a03001 	mov	r3, r1
    3970:	e1a00008 	mov	r0, r8
    3974:	e1a01009 	mov	r1, r9
    3978:	eb0008c3 	bl	5c8c <__aeabi_dmul>
    397c:	e28f3f4d 	add	r3, pc, #308	; 0x134
    3980:	e893000c 	ldm	r3, {r2, r3}
    3984:	eb0008c0 	bl	5c8c <__aeabi_dmul>
    3988:	e1a02000 	mov	r2, r0
    398c:	e1a03001 	mov	r3, r1
    3990:	e28d1008 	add	r1, sp, #8
    3994:	e8910003 	ldm	r1, {r0, r1}
    3998:	eb0007b6 	bl	5878 <__aeabi_dsub>
    399c:	e1a04000 	mov	r4, r0
    39a0:	e1a05001 	mov	r5, r1
    39a4:	e1a02004 	mov	r2, r4
    39a8:	e1a03005 	mov	r3, r5
    39ac:	e1a00006 	mov	r0, r6
    39b0:	e1a01007 	mov	r1, r7
    39b4:	eb0007b0 	bl	587c <__adddf3>
    39b8:	e3a00000 	mov	r0, #0
    39bc:	e58d0008 	str	r0, [sp, #8]
    39c0:	e58d100c 	str	r1, [sp, #12]
    39c4:	e1a02006 	mov	r2, r6
    39c8:	e1a03007 	mov	r3, r7
    39cc:	eafffe4a 	b	32fc <__ieee754_pow+0x81c>
    39d0:	e1a02000 	mov	r2, r0
    39d4:	e1a03001 	mov	r3, r1
    39d8:	e3a00000 	mov	r0, #0
    39dc:	e59f10f4 	ldr	r1, [pc, #244]	; 3ad8 <__ieee754_pow+0xff8>
    39e0:	eb00094d 	bl	5f1c <__aeabi_ddiv>
    39e4:	eafffcd7 	b	2d48 <__ieee754_pow+0x268>
    39e8:	e28f30d0 	add	r3, pc, #208	; 0xd0
    39ec:	e893000c 	ldm	r3, {r2, r3}
    39f0:	e28d1010 	add	r1, sp, #16
    39f4:	e8910003 	ldm	r1, {r0, r1}
    39f8:	eb0008a3 	bl	5c8c <__aeabi_dmul>
    39fc:	e28f30bc 	add	r3, pc, #188	; 0xbc
    3a00:	e893000c 	ldm	r3, {r2, r3}
    3a04:	eb0008a0 	bl	5c8c <__aeabi_dmul>
    3a08:	e1a0a000 	mov	r10, r0
    3a0c:	e1a0b001 	mov	r11, r1
    3a10:	eafffc4c 	b	2b48 <__ieee754_pow+0x68>
    3a14:	e35a0000 	cmp	r10, #0
    3a18:	1a00001a 	bne	3a88 <__ieee754_pow+0xfa8>
    3a1c:	e2633e41 	rsb	r3, r3, #1040	; 0x410
    3a20:	e2832003 	add	r2, r3, #3
    3a24:	e1a03256 	asr	r3, r6, r2
    3a28:	e1560213 	cmp	r6, r3, lsl r2
    3a2c:	02033001 	andeq	r3, r3, #1
    3a30:	02633002 	rsbeq	r3, r3, #2
    3a34:	058d3030 	streq	r3, [sp, #48]	; 0x30
    3a38:	13a03000 	movne	r3, #0
    3a3c:	158d3030 	strne	r3, [sp, #48]	; 0x30
    3a40:	eafffc5f 	b	2bc4 <__ieee754_pow+0xe4>
    3a44:	e59d4030 	ldr	r4, [sp, #48]	; 0x30
    3a48:	e3540001 	cmp	r4, #1
    3a4c:	e1a0a000 	mov	r10, r0
    3a50:	0281b102 	addeq	r11, r1, #-2147483648	; 0x80000000
    3a54:	1afffc8e 	bne	2c94 <__ieee754_pow+0x1b4>
    3a58:	eafffc3a 	b	2b48 <__ieee754_pow+0x68>
    3a5c:	e28f3064 	add	r3, pc, #100	; 0x64
    3a60:	e893000c 	ldm	r3, {r2, r3}
    3a64:	e28d1010 	add	r1, sp, #16
    3a68:	e8910003 	ldm	r1, {r0, r1}
    3a6c:	eb000886 	bl	5c8c <__aeabi_dmul>
    3a70:	e28f3050 	add	r3, pc, #80	; 0x50
    3a74:	e893000c 	ldm	r3, {r2, r3}
    3a78:	eb000883 	bl	5c8c <__aeabi_dmul>
    3a7c:	e1a0a000 	mov	r10, r0
    3a80:	e1a0b001 	mov	r11, r1
    3a84:	eafffc2f 	b	2b48 <__ieee754_pow+0x68>
    3a88:	e3a02000 	mov	r2, #0
    3a8c:	e58d2030 	str	r2, [sp, #48]	; 0x30
    3a90:	eafffc58 	b	2bf8 <__ieee754_pow+0x118>
    3a94:	e59d2008 	ldr	r2, [sp, #8]
    3a98:	eb000706 	bl	56b8 <scalbn>
    3a9c:	e1a02000 	mov	r2, r0
    3aa0:	e1a03001 	mov	r3, r1
    3aa4:	eaffff15 	b	3700 <__ieee754_pow+0xc20>
    3aa8:	f85ddf44 	.word	0xf85ddf44
    3aac:	3e54ae0b 	.word	0x3e54ae0b
    3ab0:	55555555 	.word	0x55555555
    3ab4:	3fd55555 	.word	0x3fd55555
    3ab8:	652b82fe 	.word	0x652b82fe
    3abc:	3ff71547 	.word	0x3ff71547
    3ac0:	8800759c 	.word	0x8800759c
    3ac4:	7e37e43c 	.word	0x7e37e43c
    3ac8:	c2f8f359 	.word	0xc2f8f359
    3acc:	01a56e1f 	.word	0x01a56e1f
    3ad0:	3fd00000 	.word	0x3fd00000
    3ad4:	3fe00000 	.word	0x3fe00000
    3ad8:	3ff00000 	.word	0x3ff00000
    3adc:	e1a00000 	nop			; (mov r0, r0)

00003ae0 <__ieee754_rem_pio2>:
    3ae0:	e92d4ff0 	push	{r4, r5, r6, r7, r8, r9, r10, r11, lr}
    3ae4:	e59fc3bc 	ldr	r12, [pc, #956]	; 3ea8 <__ieee754_rem_pio2+0x3c8>
    3ae8:	e3c17102 	bic	r7, r1, #-2147483648	; 0x80000000
    3aec:	e157000c 	cmp	r7, r12
    3af0:	e24dd03c 	sub	sp, sp, #60	; 0x3c
    3af4:	e1a04000 	mov	r4, r0
    3af8:	e1a05001 	mov	r5, r1
    3afc:	e1a0a000 	mov	r10, r0
    3b00:	e1a0b001 	mov	r11, r1
    3b04:	e1a08002 	mov	r8, r2
    3b08:	da00005b 	ble	3c7c <__ieee754_rem_pio2+0x19c>
    3b0c:	e59f2398 	ldr	r2, [pc, #920]	; 3eac <__ieee754_rem_pio2+0x3cc>
    3b10:	e1570002 	cmp	r7, r2
    3b14:	e1a09001 	mov	r9, r1
    3b18:	ca000019 	bgt	3b84 <__ieee754_rem_pio2+0xa4>
    3b1c:	e3510000 	cmp	r1, #0
    3b20:	e28f3fd6 	add	r3, pc, #856	; 0x358
    3b24:	e893000c 	ldm	r3, {r2, r3}
    3b28:	da000149 	ble	4054 <__ieee754_rem_pio2+0x574>
    3b2c:	eb000751 	bl	5878 <__aeabi_dsub>
    3b30:	e59f3378 	ldr	r3, [pc, #888]	; 3eb0 <__ieee754_rem_pio2+0x3d0>
    3b34:	e1570003 	cmp	r7, r3
    3b38:	e1a0a000 	mov	r10, r0
    3b3c:	e1a0b001 	mov	r11, r1
    3b40:	0a00005f 	beq	3cc4 <__ieee754_rem_pio2+0x1e4>
    3b44:	e28f3fcf 	add	r3, pc, #828	; 0x33c
    3b48:	e893000c 	ldm	r3, {r2, r3}
    3b4c:	eb000749 	bl	5878 <__aeabi_dsub>
    3b50:	e1a02000 	mov	r2, r0
    3b54:	e1a03001 	mov	r3, r1
    3b58:	e8880003 	stm	r8, {r0, r1}
    3b5c:	e1a0000a 	mov	r0, r10
    3b60:	e1a0100b 	mov	r1, r11
    3b64:	eb000743 	bl	5878 <__aeabi_dsub>
    3b68:	e28f3fc6 	add	r3, pc, #792	; 0x318
    3b6c:	e893000c 	ldm	r3, {r2, r3}
    3b70:	eb000740 	bl	5878 <__aeabi_dsub>
    3b74:	e3a06001 	mov	r6, #1
    3b78:	e5880008 	str	r0, [r8, #8]
    3b7c:	e588100c 	str	r1, [r8, #12]
    3b80:	ea000043 	b	3c94 <__ieee754_rem_pio2+0x1b4>
    3b84:	e59f3328 	ldr	r3, [pc, #808]	; 3eb4 <__ieee754_rem_pio2+0x3d4>
    3b88:	e1570003 	cmp	r7, r3
    3b8c:	da000075 	ble	3d68 <__ieee754_rem_pio2+0x288>
    3b90:	e59f3320 	ldr	r3, [pc, #800]	; 3eb8 <__ieee754_rem_pio2+0x3d8>
    3b94:	e1570003 	cmp	r7, r3
    3b98:	ca000041 	bgt	3ca4 <__ieee754_rem_pio2+0x1c4>
    3b9c:	e1a0aa47 	asr	r10, r7, #20
    3ba0:	e24aae41 	sub	r10, r10, #1040	; 0x410
    3ba4:	e24aa006 	sub	r10, r10, #6
    3ba8:	e0475a0a 	sub	r5, r7, r10, lsl #20
    3bac:	e1a01005 	mov	r1, r5
    3bb0:	e1a04000 	mov	r4, r0
    3bb4:	eb0009ac 	bl	626c <__aeabi_d2iz>
    3bb8:	eb0007fc 	bl	5bb0 <__aeabi_i2d>
    3bbc:	e1a06000 	mov	r6, r0
    3bc0:	e1a07001 	mov	r7, r1
    3bc4:	e1a02000 	mov	r2, r0
    3bc8:	e1a03001 	mov	r3, r1
    3bcc:	e1a00004 	mov	r0, r4
    3bd0:	e1a01005 	mov	r1, r5
    3bd4:	e58d6020 	str	r6, [sp, #32]
    3bd8:	e58d7024 	str	r7, [sp, #36]	; 0x24
    3bdc:	eb000725 	bl	5878 <__aeabi_dsub>
    3be0:	e3a02000 	mov	r2, #0
    3be4:	e59f32d0 	ldr	r3, [pc, #720]	; 3ebc <__ieee754_rem_pio2+0x3dc>
    3be8:	eb000827 	bl	5c8c <__aeabi_dmul>
    3bec:	e1a06000 	mov	r6, r0
    3bf0:	e1a07001 	mov	r7, r1
    3bf4:	eb00099c 	bl	626c <__aeabi_d2iz>
    3bf8:	eb0007ec 	bl	5bb0 <__aeabi_i2d>
    3bfc:	e1a02000 	mov	r2, r0
    3c00:	e1a03001 	mov	r3, r1
    3c04:	e1a04000 	mov	r4, r0
    3c08:	e1a05001 	mov	r5, r1
    3c0c:	e1a00006 	mov	r0, r6
    3c10:	e1a01007 	mov	r1, r7
    3c14:	e58d4028 	str	r4, [sp, #40]	; 0x28
    3c18:	e58d502c 	str	r5, [sp, #44]	; 0x2c
    3c1c:	eb000715 	bl	5878 <__aeabi_dsub>
    3c20:	e3a02000 	mov	r2, #0
    3c24:	e59f3290 	ldr	r3, [pc, #656]	; 3ebc <__ieee754_rem_pio2+0x3dc>
    3c28:	eb000817 	bl	5c8c <__aeabi_dmul>
    3c2c:	e3a02000 	mov	r2, #0
    3c30:	e3a03000 	mov	r3, #0
    3c34:	e58d0030 	str	r0, [sp, #48]	; 0x30
    3c38:	e58d1034 	str	r1, [sp, #52]	; 0x34
    3c3c:	eb00096c 	bl	61f4 <__aeabi_dcmpeq>
    3c40:	e3500000 	cmp	r0, #0
    3c44:	03a06003 	moveq	r6, #3
    3c48:	0a000032 	beq	3d18 <__ieee754_rem_pio2+0x238>
    3c4c:	e28d7028 	add	r7, sp, #40	; 0x28
    3c50:	e3a06003 	mov	r6, #3
    3c54:	e1a00004 	mov	r0, r4
    3c58:	e1a01005 	mov	r1, r5
    3c5c:	e3a02000 	mov	r2, #0
    3c60:	e3a03000 	mov	r3, #0
    3c64:	eb000962 	bl	61f4 <__aeabi_dcmpeq>
    3c68:	e3500000 	cmp	r0, #0
    3c6c:	e2466001 	sub	r6, r6, #1
    3c70:	0a000028 	beq	3d18 <__ieee754_rem_pio2+0x238>
    3c74:	e9370003 	ldmdb	r7!, {r0, r1}
    3c78:	eafffff7 	b	3c5c <__ieee754_rem_pio2+0x17c>
    3c7c:	e8820030 	stm	r2, {r4, r5}
    3c80:	e3a03000 	mov	r3, #0
    3c84:	e3a02000 	mov	r2, #0
    3c88:	e5882008 	str	r2, [r8, #8]
    3c8c:	e588300c 	str	r3, [r8, #12]
    3c90:	e3a06000 	mov	r6, #0
    3c94:	e1a00006 	mov	r0, r6
    3c98:	e28dd03c 	add	sp, sp, #60	; 0x3c
    3c9c:	e8bd4ff0 	pop	{r4, r5, r6, r7, r8, r9, r10, r11, lr}
    3ca0:	e12fff1e 	bx	lr
    3ca4:	e1a02000 	mov	r2, r0
    3ca8:	e1a03001 	mov	r3, r1
    3cac:	eb0006f1 	bl	5878 <__aeabi_dsub>
    3cb0:	e3a06000 	mov	r6, #0
    3cb4:	e5880008 	str	r0, [r8, #8]
    3cb8:	e588100c 	str	r1, [r8, #12]
    3cbc:	e8880003 	stm	r8, {r0, r1}
    3cc0:	eafffff3 	b	3c94 <__ieee754_rem_pio2+0x1b4>
    3cc4:	e28f3f71 	add	r3, pc, #452	; 0x1c4
    3cc8:	e893000c 	ldm	r3, {r2, r3}
    3ccc:	eb0006e9 	bl	5878 <__aeabi_dsub>
    3cd0:	e28f3d07 	add	r3, pc, #448	; 0x1c0
    3cd4:	e893000c 	ldm	r3, {r2, r3}
    3cd8:	e1a06000 	mov	r6, r0
    3cdc:	e1a07001 	mov	r7, r1
    3ce0:	eb0006e4 	bl	5878 <__aeabi_dsub>
    3ce4:	e1a02000 	mov	r2, r0
    3ce8:	e1a03001 	mov	r3, r1
    3cec:	e8880003 	stm	r8, {r0, r1}
    3cf0:	e1a00006 	mov	r0, r6
    3cf4:	e1a01007 	mov	r1, r7
    3cf8:	eb0006de 	bl	5878 <__aeabi_dsub>
    3cfc:	e28f3f65 	add	r3, pc, #404	; 0x194
    3d00:	e893000c 	ldm	r3, {r2, r3}
    3d04:	eb0006db 	bl	5878 <__aeabi_dsub>
    3d08:	e3a06001 	mov	r6, #1
    3d0c:	e5880008 	str	r0, [r8, #8]
    3d10:	e588100c 	str	r1, [r8, #12]
    3d14:	eaffffde 	b	3c94 <__ieee754_rem_pio2+0x1b4>
    3d18:	e3a03002 	mov	r3, #2
    3d1c:	e58d3000 	str	r3, [sp]
    3d20:	e59f3198 	ldr	r3, [pc, #408]	; 3ec0 <__ieee754_rem_pio2+0x3e0>
    3d24:	e28d0020 	add	r0, sp, #32
    3d28:	e58d3004 	str	r3, [sp, #4]
    3d2c:	e1a01008 	mov	r1, r8
    3d30:	e1a03006 	mov	r3, r6
    3d34:	e1a0200a 	mov	r2, r10
    3d38:	eb000260 	bl	46c0 <__kernel_rem_pio2>
    3d3c:	e3590000 	cmp	r9, #0
    3d40:	e1a06000 	mov	r6, r0
    3d44:	aaffffd2 	bge	3c94 <__ieee754_rem_pio2+0x1b4>
    3d48:	e5982004 	ldr	r2, [r8, #4]
    3d4c:	e598300c 	ldr	r3, [r8, #12]
    3d50:	e2822102 	add	r2, r2, #-2147483648	; 0x80000000
    3d54:	e2833102 	add	r3, r3, #-2147483648	; 0x80000000
    3d58:	e5882004 	str	r2, [r8, #4]
    3d5c:	e588300c 	str	r3, [r8, #12]
    3d60:	e2606000 	rsb	r6, r0, #0
    3d64:	eaffffca 	b	3c94 <__ieee754_rem_pio2+0x1b4>
    3d68:	eb0005c2 	bl	5478 <fabs>
    3d6c:	e28f3f4b 	add	r3, pc, #300	; 0x12c
    3d70:	e893000c 	ldm	r3, {r2, r3}
    3d74:	e1a04000 	mov	r4, r0
    3d78:	e1a05001 	mov	r5, r1
    3d7c:	eb0007c2 	bl	5c8c <__aeabi_dmul>
    3d80:	e3a02000 	mov	r2, #0
    3d84:	e59f3138 	ldr	r3, [pc, #312]	; 3ec4 <__ieee754_rem_pio2+0x3e4>
    3d88:	eb0006bb 	bl	587c <__adddf3>
    3d8c:	eb000936 	bl	626c <__aeabi_d2iz>
    3d90:	e1a06000 	mov	r6, r0
    3d94:	eb000785 	bl	5bb0 <__aeabi_i2d>
    3d98:	e28f30e0 	add	r3, pc, #224	; 0xe0
    3d9c:	e893000c 	ldm	r3, {r2, r3}
    3da0:	e58d0010 	str	r0, [sp, #16]
    3da4:	e58d1014 	str	r1, [sp, #20]
    3da8:	eb0007b7 	bl	5c8c <__aeabi_dmul>
    3dac:	e1a02000 	mov	r2, r0
    3db0:	e1a03001 	mov	r3, r1
    3db4:	e1a00004 	mov	r0, r4
    3db8:	e1a01005 	mov	r1, r5
    3dbc:	eb0006ad 	bl	5878 <__aeabi_dsub>
    3dc0:	e28f30c0 	add	r3, pc, #192	; 0xc0
    3dc4:	e893000c 	ldm	r3, {r2, r3}
    3dc8:	e1a0a000 	mov	r10, r0
    3dcc:	e1a0b001 	mov	r11, r1
    3dd0:	e28d1010 	add	r1, sp, #16
    3dd4:	e8910003 	ldm	r1, {r0, r1}
    3dd8:	eb0007ab 	bl	5c8c <__aeabi_dmul>
    3ddc:	e356001f 	cmp	r6, #31
    3de0:	e58d0008 	str	r0, [sp, #8]
    3de4:	e58d100c 	str	r1, [sp, #12]
    3de8:	e1a0000a 	mov	r0, r10
    3dec:	e1a0100b 	mov	r1, r11
    3df0:	ca000035 	bgt	3ecc <__ieee754_rem_pio2+0x3ec>
    3df4:	e59f30cc 	ldr	r3, [pc, #204]	; 3ec8 <__ieee754_rem_pio2+0x3e8>
    3df8:	e2462001 	sub	r2, r6, #1
    3dfc:	e7933102 	ldr	r3, [r3, r2, lsl #2]
    3e00:	e1530007 	cmp	r3, r7
    3e04:	0a000030 	beq	3ecc <__ieee754_rem_pio2+0x3ec>
    3e08:	e28d3008 	add	r3, sp, #8
    3e0c:	e893000c 	ldm	r3, {r2, r3}
    3e10:	eb000698 	bl	5878 <__aeabi_dsub>
    3e14:	e1a02000 	mov	r2, r0
    3e18:	e1a03001 	mov	r3, r1
    3e1c:	e888000c 	stm	r8, {r2, r3}
    3e20:	e1a05000 	mov	r5, r0
    3e24:	e1a04001 	mov	r4, r1
    3e28:	e1a02005 	mov	r2, r5
    3e2c:	e1a03004 	mov	r3, r4
    3e30:	e1a0000a 	mov	r0, r10
    3e34:	e1a0100b 	mov	r1, r11
    3e38:	eb00068e 	bl	5878 <__aeabi_dsub>
    3e3c:	e28d3008 	add	r3, sp, #8
    3e40:	e893000c 	ldm	r3, {r2, r3}
    3e44:	eb00068b 	bl	5878 <__aeabi_dsub>
    3e48:	e3590000 	cmp	r9, #0
    3e4c:	e1a02000 	mov	r2, r0
    3e50:	e1a03001 	mov	r3, r1
    3e54:	e5882008 	str	r2, [r8, #8]
    3e58:	e588300c 	str	r3, [r8, #12]
    3e5c:	aaffff8c 	bge	3c94 <__ieee754_rem_pio2+0x1b4>
    3e60:	e2844102 	add	r4, r4, #-2147483648	; 0x80000000
    3e64:	e2811102 	add	r1, r1, #-2147483648	; 0x80000000
    3e68:	e5885000 	str	r5, [r8]
    3e6c:	e5884004 	str	r4, [r8, #4]
    3e70:	e5880008 	str	r0, [r8, #8]
    3e74:	e588100c 	str	r1, [r8, #12]
    3e78:	e2666000 	rsb	r6, r6, #0
    3e7c:	eaffff84 	b	3c94 <__ieee754_rem_pio2+0x1b4>
    3e80:	54400000 	.word	0x54400000
    3e84:	3ff921fb 	.word	0x3ff921fb
    3e88:	1a626331 	.word	0x1a626331
    3e8c:	3dd0b461 	.word	0x3dd0b461
    3e90:	1a600000 	.word	0x1a600000
    3e94:	3dd0b461 	.word	0x3dd0b461
    3e98:	2e037073 	.word	0x2e037073
    3e9c:	3ba3198a 	.word	0x3ba3198a
    3ea0:	6dc9c883 	.word	0x6dc9c883
    3ea4:	3fe45f30 	.word	0x3fe45f30
    3ea8:	3fe921fb 	.word	0x3fe921fb
    3eac:	4002d97b 	.word	0x4002d97b
    3eb0:	3ff921fb 	.word	0x3ff921fb
    3eb4:	413921fb 	.word	0x413921fb
    3eb8:	7fefffff 	.word	0x7fefffff
    3ebc:	41700000 	.word	0x41700000
    3ec0:	00007834 	.word	0x00007834
    3ec4:	3fe00000 	.word	0x3fe00000
    3ec8:	000077b4 	.word	0x000077b4
    3ecc:	e28d3008 	add	r3, sp, #8
    3ed0:	e893000c 	ldm	r3, {r2, r3}
    3ed4:	eb000667 	bl	5878 <__aeabi_dsub>
    3ed8:	e1a07a47 	asr	r7, r7, #20
    3edc:	e1a04001 	mov	r4, r1
    3ee0:	e1a01081 	lsl	r1, r1, #1
    3ee4:	e1a05000 	mov	r5, r0
    3ee8:	e0471aa1 	sub	r1, r7, r1, lsr #21
    3eec:	e1a02005 	mov	r2, r5
    3ef0:	e1a03004 	mov	r3, r4
    3ef4:	e3510010 	cmp	r1, #16
    3ef8:	e888000c 	stm	r8, {r2, r3}
    3efc:	daffffc9 	ble	3e28 <__ieee754_rem_pio2+0x348>
    3f00:	e28f3f82 	add	r3, pc, #520	; 0x208
    3f04:	e893000c 	ldm	r3, {r2, r3}
    3f08:	e28d1010 	add	r1, sp, #16
    3f0c:	e8910003 	ldm	r1, {r0, r1}
    3f10:	eb00075d 	bl	5c8c <__aeabi_dmul>
    3f14:	e1a04000 	mov	r4, r0
    3f18:	e1a05001 	mov	r5, r1
    3f1c:	e1a02004 	mov	r2, r4
    3f20:	e1a03005 	mov	r3, r5
    3f24:	e1a0000a 	mov	r0, r10
    3f28:	e1a0100b 	mov	r1, r11
    3f2c:	eb000651 	bl	5878 <__aeabi_dsub>
    3f30:	e58d0018 	str	r0, [sp, #24]
    3f34:	e58d101c 	str	r1, [sp, #28]
    3f38:	e28d3018 	add	r3, sp, #24
    3f3c:	e893000c 	ldm	r3, {r2, r3}
    3f40:	e1a0000a 	mov	r0, r10
    3f44:	e1a0100b 	mov	r1, r11
    3f48:	eb00064a 	bl	5878 <__aeabi_dsub>
    3f4c:	e1a02004 	mov	r2, r4
    3f50:	e1a03005 	mov	r3, r5
    3f54:	eb000647 	bl	5878 <__aeabi_dsub>
    3f58:	e28f3f6e 	add	r3, pc, #440	; 0x1b8
    3f5c:	e893000c 	ldm	r3, {r2, r3}
    3f60:	e1a04000 	mov	r4, r0
    3f64:	e1a05001 	mov	r5, r1
    3f68:	e28d1010 	add	r1, sp, #16
    3f6c:	e8910003 	ldm	r1, {r0, r1}
    3f70:	eb000745 	bl	5c8c <__aeabi_dmul>
    3f74:	e1a02004 	mov	r2, r4
    3f78:	e1a03005 	mov	r3, r5
    3f7c:	eb00063d 	bl	5878 <__aeabi_dsub>
    3f80:	e58d0008 	str	r0, [sp, #8]
    3f84:	e58d100c 	str	r1, [sp, #12]
    3f88:	e28d3008 	add	r3, sp, #8
    3f8c:	e893000c 	ldm	r3, {r2, r3}
    3f90:	e28d1018 	add	r1, sp, #24
    3f94:	e8910003 	ldm	r1, {r0, r1}
    3f98:	eb000636 	bl	5878 <__aeabi_dsub>
    3f9c:	e1a04001 	mov	r4, r1
    3fa0:	e1a01081 	lsl	r1, r1, #1
    3fa4:	e1a05000 	mov	r5, r0
    3fa8:	e0477aa1 	sub	r7, r7, r1, lsr #21
    3fac:	e1a02005 	mov	r2, r5
    3fb0:	e1a03004 	mov	r3, r4
    3fb4:	e3570031 	cmp	r7, #49	; 0x31
    3fb8:	e888000c 	stm	r8, {r2, r3}
    3fbc:	da00004f 	ble	4100 <__ieee754_rem_pio2+0x620>
    3fc0:	e3a0242e 	mov	r2, #771751936	; 0x2e000000
    3fc4:	e59f3164 	ldr	r3, [pc, #356]	; 4130 <__ieee754_rem_pio2+0x650>
    3fc8:	e28d1010 	add	r1, sp, #16
    3fcc:	e8910003 	ldm	r1, {r0, r1}
    3fd0:	eb00072d 	bl	5c8c <__aeabi_dmul>
    3fd4:	e1a04000 	mov	r4, r0
    3fd8:	e1a05001 	mov	r5, r1
    3fdc:	e1a02004 	mov	r2, r4
    3fe0:	e1a03005 	mov	r3, r5
    3fe4:	e28d1018 	add	r1, sp, #24
    3fe8:	e8910003 	ldm	r1, {r0, r1}
    3fec:	eb000621 	bl	5878 <__aeabi_dsub>
    3ff0:	e1a0a000 	mov	r10, r0
    3ff4:	e1a0b001 	mov	r11, r1
    3ff8:	e1a0200a 	mov	r2, r10
    3ffc:	e1a0300b 	mov	r3, r11
    4000:	e28d1018 	add	r1, sp, #24
    4004:	e8910003 	ldm	r1, {r0, r1}
    4008:	eb00061a 	bl	5878 <__aeabi_dsub>
    400c:	e1a02004 	mov	r2, r4
    4010:	e1a03005 	mov	r3, r5
    4014:	eb000617 	bl	5878 <__aeabi_dsub>
    4018:	e28f3c01 	add	r3, pc, #256	; 0x100
    401c:	e893000c 	ldm	r3, {r2, r3}
    4020:	e1a04000 	mov	r4, r0
    4024:	e1a05001 	mov	r5, r1
    4028:	e28d1010 	add	r1, sp, #16
    402c:	e8910003 	ldm	r1, {r0, r1}
    4030:	eb000715 	bl	5c8c <__aeabi_dmul>
    4034:	e1a02004 	mov	r2, r4
    4038:	e1a03005 	mov	r3, r5
    403c:	eb00060d 	bl	5878 <__aeabi_dsub>
    4040:	e58d0008 	str	r0, [sp, #8]
    4044:	e58d100c 	str	r1, [sp, #12]
    4048:	e1a0000a 	mov	r0, r10
    404c:	e1a0100b 	mov	r1, r11
    4050:	eaffff6c 	b	3e08 <__ieee754_rem_pio2+0x328>
    4054:	eb000608 	bl	587c <__adddf3>
    4058:	e59f30d4 	ldr	r3, [pc, #212]	; 4134 <__ieee754_rem_pio2+0x654>
    405c:	e1570003 	cmp	r7, r3
    4060:	e1a0a000 	mov	r10, r0
    4064:	e1a0b001 	mov	r11, r1
    4068:	0a00000f 	beq	40ac <__ieee754_rem_pio2+0x5cc>
    406c:	e28f30b4 	add	r3, pc, #180	; 0xb4
    4070:	e893000c 	ldm	r3, {r2, r3}
    4074:	eb000600 	bl	587c <__adddf3>
    4078:	e1a02000 	mov	r2, r0
    407c:	e1a03001 	mov	r3, r1
    4080:	e8880003 	stm	r8, {r0, r1}
    4084:	e1a0000a 	mov	r0, r10
    4088:	e1a0100b 	mov	r1, r11
    408c:	eb0005f9 	bl	5878 <__aeabi_dsub>
    4090:	e28f3090 	add	r3, pc, #144	; 0x90
    4094:	e893000c 	ldm	r3, {r2, r3}
    4098:	eb0005f7 	bl	587c <__adddf3>
    409c:	e3e06000 	mvn	r6, #0
    40a0:	e5880008 	str	r0, [r8, #8]
    40a4:	e588100c 	str	r1, [r8, #12]
    40a8:	eafffef9 	b	3c94 <__ieee754_rem_pio2+0x1b4>
    40ac:	e28f305c 	add	r3, pc, #92	; 0x5c
    40b0:	e893000c 	ldm	r3, {r2, r3}
    40b4:	eb0005f0 	bl	587c <__adddf3>
    40b8:	e28f3058 	add	r3, pc, #88	; 0x58
    40bc:	e893000c 	ldm	r3, {r2, r3}
    40c0:	e1a06000 	mov	r6, r0
    40c4:	e1a07001 	mov	r7, r1
    40c8:	eb0005eb 	bl	587c <__adddf3>
    40cc:	e1a02000 	mov	r2, r0
    40d0:	e1a03001 	mov	r3, r1
    40d4:	e8880003 	stm	r8, {r0, r1}
    40d8:	e1a00006 	mov	r0, r6
    40dc:	e1a01007 	mov	r1, r7
    40e0:	eb0005e4 	bl	5878 <__aeabi_dsub>
    40e4:	e28f302c 	add	r3, pc, #44	; 0x2c
    40e8:	e893000c 	ldm	r3, {r2, r3}
    40ec:	eb0005e2 	bl	587c <__adddf3>
    40f0:	e3e06000 	mvn	r6, #0
    40f4:	e5880008 	str	r0, [r8, #8]
    40f8:	e588100c 	str	r1, [r8, #12]
    40fc:	eafffee4 	b	3c94 <__ieee754_rem_pio2+0x1b4>
    4100:	e28db018 	add	r11, sp, #24
    4104:	e89b0c00 	ldm	r11, {r10, r11}
    4108:	eaffff46 	b	3e28 <__ieee754_rem_pio2+0x348>
    410c:	e1a00000 	nop			; (mov r0, r0)
    4110:	1a600000 	.word	0x1a600000
    4114:	3dd0b461 	.word	0x3dd0b461
    4118:	2e037073 	.word	0x2e037073
    411c:	3ba3198a 	.word	0x3ba3198a
    4120:	252049c1 	.word	0x252049c1
    4124:	397b839a 	.word	0x397b839a
    4128:	1a626331 	.word	0x1a626331
    412c:	3dd0b461 	.word	0x3dd0b461
    4130:	3ba3198a 	.word	0x3ba3198a
    4134:	3ff921fb 	.word	0x3ff921fb

00004138 <__ieee754_sqrt>:
    4138:	e59fc230 	ldr	r12, [pc, #560]	; 4370 <__ieee754_sqrt+0x238>
    413c:	e92d45f8 	push	{r3, r4, r5, r6, r7, r8, r10, lr}
    4140:	e59f7228 	ldr	r7, [pc, #552]	; 4370 <__ieee754_sqrt+0x238>
    4144:	e001c00c 	and	r12, r1, r12
    4148:	e15c0007 	cmp	r12, r7
    414c:	e1a04000 	mov	r4, r0
    4150:	e1a05001 	mov	r5, r1
    4154:	e1a02000 	mov	r2, r0
    4158:	e1a03001 	mov	r3, r1
    415c:	e1a06001 	mov	r6, r1
    4160:	e1a0c001 	mov	r12, r1
    4164:	e1a08000 	mov	r8, r0
    4168:	0a00006a 	beq	4318 <__ieee754_sqrt+0x1e0>
    416c:	e3510000 	cmp	r1, #0
    4170:	da000051 	ble	42bc <__ieee754_sqrt+0x184>
    4174:	e1b02a41 	asrs	r2, r1, #20
    4178:	0a00005a 	beq	42e8 <__ieee754_sqrt+0x1b0>
    417c:	e3cc34ff 	bic	r3, r12, #-16777216	; 0xff000000
    4180:	e3120001 	tst	r2, #1
    4184:	e3c3360f 	bic	r3, r3, #15728640	; 0xf00000
    4188:	e2426fff 	sub	r6, r2, #1020	; 0x3fc
    418c:	e3833601 	orr	r3, r3, #1048576	; 0x100000
    4190:	01a02fa8 	lsreq	r2, r8, #31
    4194:	01a08088 	lsleq	r8, r8, #1
    4198:	00823083 	addeq	r3, r2, r3, lsl #1
    419c:	e2466003 	sub	r6, r6, #3
    41a0:	e1a02fa8 	lsr	r2, r8, #31
    41a4:	e3a07000 	mov	r7, #0
    41a8:	e0823083 	add	r3, r2, r3, lsl #1
    41ac:	e1a060c6 	asr	r6, r6, #1
    41b0:	e1a02088 	lsl	r2, r8, #1
    41b4:	e3a0c016 	mov	r12, #22
    41b8:	e1a00007 	mov	r0, r7
    41bc:	e3a01602 	mov	r1, #2097152	; 0x200000
    41c0:	e0804001 	add	r4, r0, r1
    41c4:	e1540003 	cmp	r4, r3
    41c8:	e1a05fa2 	lsr	r5, r2, #31
    41cc:	d0840001 	addle	r0, r4, r1
    41d0:	d0643003 	rsble	r3, r4, r3
    41d4:	d0877001 	addle	r7, r7, r1
    41d8:	e25cc001 	subs	r12, r12, #1
    41dc:	e0853083 	add	r3, r5, r3, lsl #1
    41e0:	e1a02082 	lsl	r2, r2, #1
    41e4:	e1a010a1 	lsr	r1, r1, #1
    41e8:	1afffff4 	bne	41c0 <__ieee754_sqrt+0x88>
    41ec:	e3a05020 	mov	r5, #32
    41f0:	e1a0800c 	mov	r8, r12
    41f4:	e3a01102 	mov	r1, #-2147483648	; 0x80000000
    41f8:	ea00000c 	b	4230 <__ieee754_sqrt+0xf8>
    41fc:	e1a0a000 	mov	r10, r0
    4200:	e1540002 	cmp	r4, r2
    4204:	e0603003 	rsb	r3, r0, r3
    4208:	82433001 	subhi	r3, r3, #1
    420c:	e0642002 	rsb	r2, r4, r2
    4210:	e08cc001 	add	r12, r12, r1
    4214:	e1a0000a 	mov	r0, r10
    4218:	e1a04fa2 	lsr	r4, r2, #31
    421c:	e2555001 	subs	r5, r5, #1
    4220:	e0843083 	add	r3, r4, r3, lsl #1
    4224:	e1a02082 	lsl	r2, r2, #1
    4228:	e1a010a1 	lsr	r1, r1, #1
    422c:	0a00000d 	beq	4268 <__ieee754_sqrt+0x130>
    4230:	e1500003 	cmp	r0, r3
    4234:	e0814008 	add	r4, r1, r8
    4238:	ba000002 	blt	4248 <__ieee754_sqrt+0x110>
    423c:	e1540002 	cmp	r4, r2
    4240:	91530000 	cmpls	r3, r0
    4244:	1afffff3 	bne	4218 <__ieee754_sqrt+0xe0>
    4248:	e2048102 	and	r8, r4, #-2147483648	; 0x80000000
    424c:	e3580102 	cmp	r8, #-2147483648	; 0x80000000
    4250:	e0848001 	add	r8, r4, r1
    4254:	1affffe8 	bne	41fc <__ieee754_sqrt+0xc4>
    4258:	e3580000 	cmp	r8, #0
    425c:	a280a001 	addge	r10, r0, #1
    4260:	aaffffe6 	bge	4200 <__ieee754_sqrt+0xc8>
    4264:	eaffffe4 	b	41fc <__ieee754_sqrt+0xc4>
    4268:	e1923003 	orrs	r3, r2, r3
    426c:	1a00000b 	bne	42a0 <__ieee754_sqrt+0x168>
    4270:	e1a0c0ac 	lsr	r12, r12, #1
    4274:	e1a030c7 	asr	r3, r7, #1
    4278:	e28335ff 	add	r3, r3, #1069547520	; 0x3fc00000
    427c:	e3170001 	tst	r7, #1
    4280:	e2833602 	add	r3, r3, #2097152	; 0x200000
    4284:	138cc102 	orrne	r12, r12, #-2147483648	; 0x80000000
    4288:	e0835a06 	add	r5, r3, r6, lsl #20
    428c:	e1a0400c 	mov	r4, r12
    4290:	e1a00004 	mov	r0, r4
    4294:	e1a01005 	mov	r1, r5
    4298:	e8bd45f8 	pop	{r3, r4, r5, r6, r7, r8, r10, lr}
    429c:	e12fff1e 	bx	lr
    42a0:	e37c0001 	cmn	r12, #1
    42a4:	02877001 	addeq	r7, r7, #1
    42a8:	01a0c005 	moveq	r12, r5
    42ac:	0afffff0 	beq	4274 <__ieee754_sqrt+0x13c>
    42b0:	e20c3001 	and	r3, r12, #1
    42b4:	e083c00c 	add	r12, r3, r12
    42b8:	eaffffec 	b	4270 <__ieee754_sqrt+0x138>
    42bc:	e3c1c102 	bic	r12, r1, #-2147483648	; 0x80000000
    42c0:	e19cc000 	orrs	r12, r12, r0
    42c4:	0afffff1 	beq	4290 <__ieee754_sqrt+0x158>
    42c8:	e3510000 	cmp	r1, #0
    42cc:	01a02001 	moveq	r2, r1
    42d0:	1a00001d 	bne	434c <__ieee754_sqrt+0x214>
    42d4:	e1a0c5a8 	lsr	r12, r8, #11
    42d8:	e35c0000 	cmp	r12, #0
    42dc:	e2422015 	sub	r2, r2, #21
    42e0:	e1a08a88 	lsl	r8, r8, #21
    42e4:	0afffffa 	beq	42d4 <__ieee754_sqrt+0x19c>
    42e8:	e21c3601 	ands	r3, r12, #1048576	; 0x100000
    42ec:	1a000012 	bne	433c <__ieee754_sqrt+0x204>
    42f0:	e1a0c08c 	lsl	r12, r12, #1
    42f4:	e31c0601 	tst	r12, #1048576	; 0x100000
    42f8:	e2833001 	add	r3, r3, #1
    42fc:	0afffffb 	beq	42f0 <__ieee754_sqrt+0x1b8>
    4300:	e2631001 	rsb	r1, r3, #1
    4304:	e2630020 	rsb	r0, r3, #32
    4308:	e18cc038 	orr	r12, r12, r8, lsr r0
    430c:	e0822001 	add	r2, r2, r1
    4310:	e1a08318 	lsl	r8, r8, r3
    4314:	eaffff98 	b	417c <__ieee754_sqrt+0x44>
    4318:	eb00065b 	bl	5c8c <__aeabi_dmul>
    431c:	e1a02000 	mov	r2, r0
    4320:	e1a03001 	mov	r3, r1
    4324:	e1a00004 	mov	r0, r4
    4328:	e1a01005 	mov	r1, r5
    432c:	eb000552 	bl	587c <__adddf3>
    4330:	e1a04000 	mov	r4, r0
    4334:	e1a05001 	mov	r5, r1
    4338:	eaffffd4 	b	4290 <__ieee754_sqrt+0x158>
    433c:	e3a00020 	mov	r0, #32
    4340:	e3a01001 	mov	r1, #1
    4344:	e3a03000 	mov	r3, #0
    4348:	eaffffee 	b	4308 <__ieee754_sqrt+0x1d0>
    434c:	e1a02000 	mov	r2, r0
    4350:	e1a03001 	mov	r3, r1
    4354:	eb000547 	bl	5878 <__aeabi_dsub>
    4358:	e1a02000 	mov	r2, r0
    435c:	e1a03001 	mov	r3, r1
    4360:	eb0006ed 	bl	5f1c <__aeabi_ddiv>
    4364:	e1a04000 	mov	r4, r0
    4368:	e1a05001 	mov	r5, r1
    436c:	eaffffc7 	b	4290 <__ieee754_sqrt+0x158>
    4370:	7ff00000 	.word	0x7ff00000
    4374:	00000000 	.word	0x00000000

00004378 <__kernel_cos>:
    4378:	e92d4ff0 	push	{r4, r5, r6, r7, r8, r9, r10, r11, lr}
    437c:	e3c19102 	bic	r9, r1, #-2147483648	; 0x80000000
    4380:	e35905f9 	cmp	r9, #1044381696	; 0x3e400000
    4384:	e24dd014 	sub	sp, sp, #20
    4388:	e1a06000 	mov	r6, r0
    438c:	e1a07001 	mov	r7, r1
    4390:	e1a04000 	mov	r4, r0
    4394:	e1a05001 	mov	r5, r1
    4398:	e1a0a002 	mov	r10, r2
    439c:	e1a0b003 	mov	r11, r3
    43a0:	aa00004d 	bge	44dc <__kernel_cos+0x164>
    43a4:	eb0007b0 	bl	626c <__aeabi_d2iz>
    43a8:	e3500000 	cmp	r0, #0
    43ac:	0a0000ae 	beq	466c <__kernel_cos+0x2f4>
    43b0:	e1a02006 	mov	r2, r6
    43b4:	e1a03007 	mov	r3, r7
    43b8:	e1a00006 	mov	r0, r6
    43bc:	e1a01007 	mov	r1, r7
    43c0:	eb000631 	bl	5c8c <__aeabi_dmul>
    43c4:	e28f3fab 	add	r3, pc, #684	; 0x2ac
    43c8:	e893000c 	ldm	r3, {r2, r3}
    43cc:	e1a04000 	mov	r4, r0
    43d0:	e1a05001 	mov	r5, r1
    43d4:	eb00062c 	bl	5c8c <__aeabi_dmul>
    43d8:	e28f3e2a 	add	r3, pc, #672	; 0x2a0
    43dc:	e893000c 	ldm	r3, {r2, r3}
    43e0:	eb000525 	bl	587c <__adddf3>
    43e4:	e1a02004 	mov	r2, r4
    43e8:	e1a03005 	mov	r3, r5
    43ec:	eb000626 	bl	5c8c <__aeabi_dmul>
    43f0:	e28f3e29 	add	r3, pc, #656	; 0x290
    43f4:	e893000c 	ldm	r3, {r2, r3}
    43f8:	eb00051e 	bl	5878 <__aeabi_dsub>
    43fc:	e1a02004 	mov	r2, r4
    4400:	e1a03005 	mov	r3, r5
    4404:	eb000620 	bl	5c8c <__aeabi_dmul>
    4408:	e28f3d0a 	add	r3, pc, #640	; 0x280
    440c:	e893000c 	ldm	r3, {r2, r3}
    4410:	eb000519 	bl	587c <__adddf3>
    4414:	e1a02004 	mov	r2, r4
    4418:	e1a03005 	mov	r3, r5
    441c:	eb00061a 	bl	5c8c <__aeabi_dmul>
    4420:	e28f3e27 	add	r3, pc, #624	; 0x270
    4424:	e893000c 	ldm	r3, {r2, r3}
    4428:	eb000512 	bl	5878 <__aeabi_dsub>
    442c:	e1a02004 	mov	r2, r4
    4430:	e1a03005 	mov	r3, r5
    4434:	eb000614 	bl	5c8c <__aeabi_dmul>
    4438:	e28f3e26 	add	r3, pc, #608	; 0x260
    443c:	e893000c 	ldm	r3, {r2, r3}
    4440:	eb00050d 	bl	587c <__adddf3>
    4444:	e1a02004 	mov	r2, r4
    4448:	e1a03005 	mov	r3, r5
    444c:	eb00060e 	bl	5c8c <__aeabi_dmul>
    4450:	e88d0003 	stm	sp, {r0, r1}
    4454:	e1a00004 	mov	r0, r4
    4458:	e1a01005 	mov	r1, r5
    445c:	e3a02000 	mov	r2, #0
    4460:	e59f3240 	ldr	r3, [pc, #576]	; 46a8 <__kernel_cos+0x330>
    4464:	eb000608 	bl	5c8c <__aeabi_dmul>
    4468:	e89d000c 	ldm	sp, {r2, r3}
    446c:	e1a08000 	mov	r8, r0
    4470:	e1a09001 	mov	r9, r1
    4474:	e1a00004 	mov	r0, r4
    4478:	e1a01005 	mov	r1, r5
    447c:	eb000602 	bl	5c8c <__aeabi_dmul>
    4480:	e1a0200a 	mov	r2, r10
    4484:	e1a04000 	mov	r4, r0
    4488:	e1a05001 	mov	r5, r1
    448c:	e1a0300b 	mov	r3, r11
    4490:	e1a00006 	mov	r0, r6
    4494:	e1a01007 	mov	r1, r7
    4498:	eb0005fb 	bl	5c8c <__aeabi_dmul>
    449c:	e1a02000 	mov	r2, r0
    44a0:	e1a03001 	mov	r3, r1
    44a4:	e1a00004 	mov	r0, r4
    44a8:	e1a01005 	mov	r1, r5
    44ac:	eb0004f1 	bl	5878 <__aeabi_dsub>
    44b0:	e1a02000 	mov	r2, r0
    44b4:	e1a03001 	mov	r3, r1
    44b8:	e1a00008 	mov	r0, r8
    44bc:	e1a01009 	mov	r1, r9
    44c0:	eb0004ec 	bl	5878 <__aeabi_dsub>
    44c4:	e1a02000 	mov	r2, r0
    44c8:	e1a03001 	mov	r3, r1
    44cc:	e3a00000 	mov	r0, #0
    44d0:	e59f11d4 	ldr	r1, [pc, #468]	; 46ac <__kernel_cos+0x334>
    44d4:	eb0004e7 	bl	5878 <__aeabi_dsub>
    44d8:	ea00005a 	b	4648 <__kernel_cos+0x2d0>
    44dc:	e1a02000 	mov	r2, r0
    44e0:	e1a03001 	mov	r3, r1
    44e4:	eb0005e8 	bl	5c8c <__aeabi_dmul>
    44e8:	e28f3f62 	add	r3, pc, #392	; 0x188
    44ec:	e893000c 	ldm	r3, {r2, r3}
    44f0:	e1a04000 	mov	r4, r0
    44f4:	e1a05001 	mov	r5, r1
    44f8:	eb0005e3 	bl	5c8c <__aeabi_dmul>
    44fc:	e28f3f5f 	add	r3, pc, #380	; 0x17c
    4500:	e893000c 	ldm	r3, {r2, r3}
    4504:	eb0004dc 	bl	587c <__adddf3>
    4508:	e1a02004 	mov	r2, r4
    450c:	e1a03005 	mov	r3, r5
    4510:	eb0005dd 	bl	5c8c <__aeabi_dmul>
    4514:	e28f3f5b 	add	r3, pc, #364	; 0x16c
    4518:	e893000c 	ldm	r3, {r2, r3}
    451c:	eb0004d5 	bl	5878 <__aeabi_dsub>
    4520:	e1a02004 	mov	r2, r4
    4524:	e1a03005 	mov	r3, r5
    4528:	eb0005d7 	bl	5c8c <__aeabi_dmul>
    452c:	e28f3f57 	add	r3, pc, #348	; 0x15c
    4530:	e893000c 	ldm	r3, {r2, r3}
    4534:	eb0004d0 	bl	587c <__adddf3>
    4538:	e1a02004 	mov	r2, r4
    453c:	e1a03005 	mov	r3, r5
    4540:	eb0005d1 	bl	5c8c <__aeabi_dmul>
    4544:	e28f3f53 	add	r3, pc, #332	; 0x14c
    4548:	e893000c 	ldm	r3, {r2, r3}
    454c:	eb0004c9 	bl	5878 <__aeabi_dsub>
    4550:	e1a02004 	mov	r2, r4
    4554:	e1a03005 	mov	r3, r5
    4558:	eb0005cb 	bl	5c8c <__aeabi_dmul>
    455c:	e28f3f4f 	add	r3, pc, #316	; 0x13c
    4560:	e893000c 	ldm	r3, {r2, r3}
    4564:	eb0004c4 	bl	587c <__adddf3>
    4568:	e1a03005 	mov	r3, r5
    456c:	e1a02004 	mov	r2, r4
    4570:	eb0005c5 	bl	5c8c <__aeabi_dmul>
    4574:	e59f3134 	ldr	r3, [pc, #308]	; 46b0 <__kernel_cos+0x338>
    4578:	e1590003 	cmp	r9, r3
    457c:	e88d0003 	stm	sp, {r0, r1}
    4580:	daffffb3 	ble	4454 <__kernel_cos+0xdc>
    4584:	e59f3128 	ldr	r3, [pc, #296]	; 46b4 <__kernel_cos+0x33c>
    4588:	e1590003 	cmp	r9, r3
    458c:	e3a02000 	mov	r2, #0
    4590:	ca00002f 	bgt	4654 <__kernel_cos+0x2dc>
    4594:	e2493602 	sub	r3, r9, #2097152	; 0x200000
    4598:	e3a02000 	mov	r2, #0
    459c:	e3a00000 	mov	r0, #0
    45a0:	e59f1104 	ldr	r1, [pc, #260]	; 46ac <__kernel_cos+0x334>
    45a4:	e1a08002 	mov	r8, r2
    45a8:	e1a09003 	mov	r9, r3
    45ac:	eb0004b1 	bl	5878 <__aeabi_dsub>
    45b0:	e58d0008 	str	r0, [sp, #8]
    45b4:	e58d100c 	str	r1, [sp, #12]
    45b8:	e1a00004 	mov	r0, r4
    45bc:	e1a01005 	mov	r1, r5
    45c0:	e3a02000 	mov	r2, #0
    45c4:	e59f30dc 	ldr	r3, [pc, #220]	; 46a8 <__kernel_cos+0x330>
    45c8:	eb0005af 	bl	5c8c <__aeabi_dmul>
    45cc:	e1a02008 	mov	r2, r8
    45d0:	e1a03009 	mov	r3, r9
    45d4:	eb0004a7 	bl	5878 <__aeabi_dsub>
    45d8:	e89d000c 	ldm	sp, {r2, r3}
    45dc:	e1a08000 	mov	r8, r0
    45e0:	e1a09001 	mov	r9, r1
    45e4:	e1a00004 	mov	r0, r4
    45e8:	e1a01005 	mov	r1, r5
    45ec:	eb0005a6 	bl	5c8c <__aeabi_dmul>
    45f0:	e1a0200a 	mov	r2, r10
    45f4:	e1a04000 	mov	r4, r0
    45f8:	e1a05001 	mov	r5, r1
    45fc:	e1a0300b 	mov	r3, r11
    4600:	e1a00006 	mov	r0, r6
    4604:	e1a01007 	mov	r1, r7
    4608:	eb00059f 	bl	5c8c <__aeabi_dmul>
    460c:	e1a02000 	mov	r2, r0
    4610:	e1a03001 	mov	r3, r1
    4614:	e1a00004 	mov	r0, r4
    4618:	e1a01005 	mov	r1, r5
    461c:	eb000495 	bl	5878 <__aeabi_dsub>
    4620:	e1a02000 	mov	r2, r0
    4624:	e1a03001 	mov	r3, r1
    4628:	e1a00008 	mov	r0, r8
    462c:	e1a01009 	mov	r1, r9
    4630:	eb000490 	bl	5878 <__aeabi_dsub>
    4634:	e1a02000 	mov	r2, r0
    4638:	e1a03001 	mov	r3, r1
    463c:	e28d1008 	add	r1, sp, #8
    4640:	e8910003 	ldm	r1, {r0, r1}
    4644:	eb00048b 	bl	5878 <__aeabi_dsub>
    4648:	e28dd014 	add	sp, sp, #20
    464c:	e8bd4ff0 	pop	{r4, r5, r6, r7, r8, r9, r10, r11, lr}
    4650:	e12fff1e 	bx	lr
    4654:	e59f305c 	ldr	r3, [pc, #92]	; 46b8 <__kernel_cos+0x340>
    4658:	e3a08000 	mov	r8, #0
    465c:	e58d2008 	str	r2, [sp, #8]
    4660:	e58d300c 	str	r3, [sp, #12]
    4664:	e59f9050 	ldr	r9, [pc, #80]	; 46bc <__kernel_cos+0x344>
    4668:	eaffffd2 	b	45b8 <__kernel_cos+0x240>
    466c:	e3a00000 	mov	r0, #0
    4670:	e59f1034 	ldr	r1, [pc, #52]	; 46ac <__kernel_cos+0x334>
    4674:	eafffff3 	b	4648 <__kernel_cos+0x2d0>
    4678:	be8838d4 	.word	0xbe8838d4
    467c:	bda8fae9 	.word	0xbda8fae9
    4680:	bdb4b1c4 	.word	0xbdb4b1c4
    4684:	3e21ee9e 	.word	0x3e21ee9e
    4688:	809c52ad 	.word	0x809c52ad
    468c:	3e927e4f 	.word	0x3e927e4f
    4690:	19cb1590 	.word	0x19cb1590
    4694:	3efa01a0 	.word	0x3efa01a0
    4698:	16c15177 	.word	0x16c15177
    469c:	3f56c16c 	.word	0x3f56c16c
    46a0:	5555554c 	.word	0x5555554c
    46a4:	3fa55555 	.word	0x3fa55555
    46a8:	3fe00000 	.word	0x3fe00000
    46ac:	3ff00000 	.word	0x3ff00000
    46b0:	3fd33332 	.word	0x3fd33332
    46b4:	3fe90000 	.word	0x3fe90000
    46b8:	3fe70000 	.word	0x3fe70000
    46bc:	3fd20000 	.word	0x3fd20000

000046c0 <__kernel_rem_pio2>:
    46c0:	e92d4ff0 	push	{r4, r5, r6, r7, r8, r9, r10, r11, lr}
    46c4:	e59feb6c 	ldr	lr, [pc, #2924]	; 5238 <__kernel_rem_pio2+0xb78>
    46c8:	e242c003 	sub	r12, r2, #3
    46cc:	e0ce4e9c 	smull	r4, lr, r12, lr
    46d0:	e1a0cfcc 	asr	r12, r12, #31
    46d4:	e06cc14e 	rsb	r12, r12, lr, asr #2
    46d8:	e24ddf99 	sub	sp, sp, #612	; 0x264
    46dc:	e1cccfcc 	bic	r12, r12, r12, asr #31
    46e0:	e58dc028 	str	r12, [sp, #40]	; 0x28
    46e4:	e1a0b003 	mov	r11, r3
    46e8:	e59dc288 	ldr	r12, [sp, #648]	; 0x288
    46ec:	e59f3b48 	ldr	r3, [pc, #2888]	; 523c <__kernel_rem_pio2+0xb7c>
    46f0:	e793310c 	ldr	r3, [r3, r12, lsl #2]
    46f4:	e59dc028 	ldr	r12, [sp, #40]	; 0x28
    46f8:	e58d3020 	str	r3, [sp, #32]
    46fc:	e59de020 	ldr	lr, [sp, #32]
    4700:	e1e0300c 	mvn	r3, r12
    4704:	e24b4001 	sub	r4, r11, #1
    4708:	e0833083 	add	r3, r3, r3, lsl #1
    470c:	e58d0010 	str	r0, [sp, #16]
    4710:	e59d0028 	ldr	r0, [sp, #40]	; 0x28
    4714:	e0823183 	add	r3, r2, r3, lsl #3
    4718:	e094c00e 	adds	r12, r4, lr
    471c:	e58d400c 	str	r4, [sp, #12]
    4720:	e58d101c 	str	r1, [sp, #28]
    4724:	e58d3018 	str	r3, [sp, #24]
    4728:	e0646000 	rsb	r6, r4, r0
    472c:	4a000012 	bmi	477c <__kernel_rem_pio2+0xbc>
    4730:	e086c00c 	add	r12, r6, r12
    4734:	e28c4001 	add	r4, r12, #1
    4738:	e59dc28c 	ldr	r12, [sp, #652]	; 0x28c
    473c:	e28d8080 	add	r8, sp, #128	; 0x80
    4740:	e08c5106 	add	r5, r12, r6, lsl #2
    4744:	e3a07000 	mov	r7, #0
    4748:	ea000006 	b	4768 <__kernel_rem_pio2+0xa8>
    474c:	e7950007 	ldr	r0, [r5, r7]
    4750:	eb000516 	bl	5bb0 <__aeabi_i2d>
    4754:	e2866001 	add	r6, r6, #1
    4758:	e1560004 	cmp	r6, r4
    475c:	e8a80003 	stmia	r8!, {r0, r1}
    4760:	e2877004 	add	r7, r7, #4
    4764:	0a000004 	beq	477c <__kernel_rem_pio2+0xbc>
    4768:	e3560000 	cmp	r6, #0
    476c:	aafffff6 	bge	474c <__kernel_rem_pio2+0x8c>
    4770:	e3a00000 	mov	r0, #0
    4774:	e3a01000 	mov	r1, #0
    4778:	eafffff5 	b	4754 <__kernel_rem_pio2+0x94>
    477c:	e59d4020 	ldr	r4, [sp, #32]
    4780:	e3540000 	cmp	r4, #0
    4784:	ba000020 	blt	480c <__kernel_rem_pio2+0x14c>
    4788:	e59d4020 	ldr	r4, [sp, #32]
    478c:	e28dcf72 	add	r12, sp, #456	; 0x1c8
    4790:	e08cc184 	add	r12, r12, r4, lsl #3
    4794:	e58dc004 	str	r12, [sp, #4]
    4798:	e28dad07 	add	r10, sp, #448	; 0x1c0
    479c:	e1a0800b 	mov	r8, r11
    47a0:	e59dc00c 	ldr	r12, [sp, #12]
    47a4:	e35c0000 	cmp	r12, #0
    47a8:	ba000130 	blt	4c70 <__kernel_rem_pio2+0x5b0>
    47ac:	e28de080 	add	lr, sp, #128	; 0x80
    47b0:	e59d9010 	ldr	r9, [sp, #16]
    47b4:	e08e7188 	add	r7, lr, r8, lsl #3
    47b8:	e3a04000 	mov	r4, #0
    47bc:	e3a05000 	mov	r5, #0
    47c0:	e3a06000 	mov	r6, #0
    47c4:	e937000c 	ldmdb	r7!, {r2, r3}
    47c8:	e8b90003 	ldm	r9!, {r0, r1}
    47cc:	eb00052e 	bl	5c8c <__aeabi_dmul>
    47d0:	e1a02000 	mov	r2, r0
    47d4:	e1a03001 	mov	r3, r1
    47d8:	e1a00004 	mov	r0, r4
    47dc:	e1a01005 	mov	r1, r5
    47e0:	eb000425 	bl	587c <__adddf3>
    47e4:	e2866001 	add	r6, r6, #1
    47e8:	e156000b 	cmp	r6, r11
    47ec:	e1a04000 	mov	r4, r0
    47f0:	e1a05001 	mov	r5, r1
    47f4:	1afffff2 	bne	47c4 <__kernel_rem_pio2+0x104>
    47f8:	e8aa0030 	stmia	r10!, {r4, r5}
    47fc:	e59d4004 	ldr	r4, [sp, #4]
    4800:	e15a0004 	cmp	r10, r4
    4804:	e2888001 	add	r8, r8, #1
    4808:	1affffe4 	bne	47a0 <__kernel_rem_pio2+0xe0>
    480c:	e59dc020 	ldr	r12, [sp, #32]
    4810:	e28d4030 	add	r4, sp, #48	; 0x30
    4814:	e084410c 	add	r4, r4, r12, lsl #2
    4818:	e58d402c 	str	r4, [sp, #44]	; 0x2c
    481c:	e58dc004 	str	r12, [sp, #4]
    4820:	e59d4004 	ldr	r4, [sp, #4]
    4824:	e28dce26 	add	r12, sp, #608	; 0x260
    4828:	e1a0a184 	lsl	r10, r4, #3
    482c:	e08c300a 	add	r3, r12, r10
    4830:	e3540000 	cmp	r4, #0
    4834:	e24350a0 	sub	r5, r3, #160	; 0xa0
    4838:	e8950030 	ldm	r5, {r4, r5}
    483c:	da00001f 	ble	48c0 <__kernel_rem_pio2+0x200>
    4840:	e59dc004 	ldr	r12, [sp, #4]
    4844:	e28d802c 	add	r8, sp, #44	; 0x2c
    4848:	e28ded07 	add	lr, sp, #448	; 0x1c0
    484c:	e08ea00a 	add	r10, lr, r10
    4850:	e088910c 	add	r9, r8, r12, lsl #2
    4854:	e3a02000 	mov	r2, #0
    4858:	e59f39e0 	ldr	r3, [pc, #2528]	; 5240 <__kernel_rem_pio2+0xb80>
    485c:	e1a00004 	mov	r0, r4
    4860:	e1a01005 	mov	r1, r5
    4864:	eb000508 	bl	5c8c <__aeabi_dmul>
    4868:	eb00067f 	bl	626c <__aeabi_d2iz>
    486c:	eb0004cf 	bl	5bb0 <__aeabi_i2d>
    4870:	e3a02000 	mov	r2, #0
    4874:	e59f39c8 	ldr	r3, [pc, #2504]	; 5244 <__kernel_rem_pio2+0xb84>
    4878:	e1a06000 	mov	r6, r0
    487c:	e1a07001 	mov	r7, r1
    4880:	eb000501 	bl	5c8c <__aeabi_dmul>
    4884:	e1a02000 	mov	r2, r0
    4888:	e1a03001 	mov	r3, r1
    488c:	e1a00004 	mov	r0, r4
    4890:	e1a01005 	mov	r1, r5
    4894:	eb0003f7 	bl	5878 <__aeabi_dsub>
    4898:	eb000673 	bl	626c <__aeabi_d2iz>
    489c:	e1a02006 	mov	r2, r6
    48a0:	e5a80004 	str	r0, [r8, #4]!
    48a4:	e1a03007 	mov	r3, r7
    48a8:	e93a0003 	ldmdb	r10!, {r0, r1}
    48ac:	eb0003f2 	bl	587c <__adddf3>
    48b0:	e1580009 	cmp	r8, r9
    48b4:	e1a04000 	mov	r4, r0
    48b8:	e1a05001 	mov	r5, r1
    48bc:	1affffe4 	bne	4854 <__kernel_rem_pio2+0x194>
    48c0:	e59d2018 	ldr	r2, [sp, #24]
    48c4:	e1a00004 	mov	r0, r4
    48c8:	e1a01005 	mov	r1, r5
    48cc:	eb000379 	bl	56b8 <scalbn>
    48d0:	e3a02000 	mov	r2, #0
    48d4:	e3a035ff 	mov	r3, #1069547520	; 0x3fc00000
    48d8:	e1a04000 	mov	r4, r0
    48dc:	e1a05001 	mov	r5, r1
    48e0:	eb0004e9 	bl	5c8c <__aeabi_dmul>
    48e4:	ebfff697 	bl	2348 <floor>
    48e8:	e3a02000 	mov	r2, #0
    48ec:	e59f3954 	ldr	r3, [pc, #2388]	; 5248 <__kernel_rem_pio2+0xb88>
    48f0:	eb0004e5 	bl	5c8c <__aeabi_dmul>
    48f4:	e1a02000 	mov	r2, r0
    48f8:	e1a03001 	mov	r3, r1
    48fc:	e1a00004 	mov	r0, r4
    4900:	e1a01005 	mov	r1, r5
    4904:	eb0003db 	bl	5878 <__aeabi_dsub>
    4908:	e1a04000 	mov	r4, r0
    490c:	e1a05001 	mov	r5, r1
    4910:	eb000655 	bl	626c <__aeabi_d2iz>
    4914:	e1a08000 	mov	r8, r0
    4918:	eb0004a4 	bl	5bb0 <__aeabi_i2d>
    491c:	e1a02000 	mov	r2, r0
    4920:	e1a03001 	mov	r3, r1
    4924:	e1a00004 	mov	r0, r4
    4928:	e1a01005 	mov	r1, r5
    492c:	eb0003d1 	bl	5878 <__aeabi_dsub>
    4930:	e59d4018 	ldr	r4, [sp, #24]
    4934:	e3540000 	cmp	r4, #0
    4938:	e1a06000 	mov	r6, r0
    493c:	e1a07001 	mov	r7, r1
    4940:	da0000ad 	ble	4bfc <__kernel_rem_pio2+0x53c>
    4944:	e59dc004 	ldr	r12, [sp, #4]
    4948:	e28dee26 	add	lr, sp, #608	; 0x260
    494c:	e24c2001 	sub	r2, r12, #1
    4950:	e08e2102 	add	r2, lr, r2, lsl #2
    4954:	e5120230 	ldr	r0, [r2, #-560]	; 0xfffffdd0
    4958:	e2643018 	rsb	r3, r4, #24
    495c:	e1a01350 	asr	r1, r0, r3
    4960:	e0403311 	sub	r3, r0, r1, lsl r3
    4964:	e2645017 	rsb	r5, r4, #23
    4968:	e1a05553 	asr	r5, r3, r5
    496c:	e5023230 	str	r3, [r2, #-560]	; 0xfffffdd0
    4970:	e0888001 	add	r8, r8, r1
    4974:	e3550000 	cmp	r5, #0
    4978:	da000027 	ble	4a1c <__kernel_rem_pio2+0x35c>
    497c:	e59d4004 	ldr	r4, [sp, #4]
    4980:	e3540000 	cmp	r4, #0
    4984:	e2888001 	add	r8, r8, #1
    4988:	da0000b6 	ble	4c68 <__kernel_rem_pio2+0x5a8>
    498c:	e28d3030 	add	r3, sp, #48	; 0x30
    4990:	e0830104 	add	r0, r3, r4, lsl #2
    4994:	e3a04000 	mov	r4, #0
    4998:	ea000005 	b	49b4 <__kernel_rem_pio2+0x2f4>
    499c:	e3520000 	cmp	r2, #0
    49a0:	12622401 	rsbne	r2, r2, #16777216	; 0x1000000
    49a4:	15032004 	strne	r2, [r3, #-4]
    49a8:	13a04001 	movne	r4, #1
    49ac:	e1530000 	cmp	r3, r0
    49b0:	0a000008 	beq	49d8 <__kernel_rem_pio2+0x318>
    49b4:	e3540000 	cmp	r4, #0
    49b8:	e4932004 	ldr	r2, [r3], #4
    49bc:	0afffff6 	beq	499c <__kernel_rem_pio2+0x2dc>
    49c0:	e3e014ff 	mvn	r1, #-16777216	; 0xff000000
    49c4:	e0621001 	rsb	r1, r2, r1
    49c8:	e1530000 	cmp	r3, r0
    49cc:	e5031004 	str	r1, [r3, #-4]
    49d0:	e3a04001 	mov	r4, #1
    49d4:	1afffff6 	bne	49b4 <__kernel_rem_pio2+0x2f4>
    49d8:	e59dc018 	ldr	r12, [sp, #24]
    49dc:	e35c0000 	cmp	r12, #0
    49e0:	da00000b 	ble	4a14 <__kernel_rem_pio2+0x354>
    49e4:	e35c0001 	cmp	r12, #1
    49e8:	0a00008a 	beq	4c18 <__kernel_rem_pio2+0x558>
    49ec:	e35c0002 	cmp	r12, #2
    49f0:	1a000007 	bne	4a14 <__kernel_rem_pio2+0x354>
    49f4:	e59dc004 	ldr	r12, [sp, #4]
    49f8:	e28dee26 	add	lr, sp, #608	; 0x260
    49fc:	e24c3001 	sub	r3, r12, #1
    4a00:	e08e3103 	add	r3, lr, r3, lsl #2
    4a04:	e5132230 	ldr	r2, [r3, #-560]	; 0xfffffdd0
    4a08:	e3c224ff 	bic	r2, r2, #-16777216	; 0xff000000
    4a0c:	e3c22503 	bic	r2, r2, #12582912	; 0xc00000
    4a10:	e5032230 	str	r2, [r3, #-560]	; 0xfffffdd0
    4a14:	e3550002 	cmp	r5, #2
    4a18:	0a000062 	beq	4ba8 <__kernel_rem_pio2+0x4e8>
    4a1c:	e1a00006 	mov	r0, r6
    4a20:	e1a01007 	mov	r1, r7
    4a24:	e3a02000 	mov	r2, #0
    4a28:	e3a03000 	mov	r3, #0
    4a2c:	eb0005f0 	bl	61f4 <__aeabi_dcmpeq>
    4a30:	e3500000 	cmp	r0, #0
    4a34:	0a000090 	beq	4c7c <__kernel_rem_pio2+0x5bc>
    4a38:	e59d4004 	ldr	r4, [sp, #4]
    4a3c:	e59dc020 	ldr	r12, [sp, #32]
    4a40:	e2440001 	sub	r0, r4, #1
    4a44:	e15c0000 	cmp	r12, r0
    4a48:	ca000009 	bgt	4a74 <__kernel_rem_pio2+0x3b4>
    4a4c:	e28de030 	add	lr, sp, #48	; 0x30
    4a50:	e59dc02c 	ldr	r12, [sp, #44]	; 0x2c
    4a54:	e08e3104 	add	r3, lr, r4, lsl #2
    4a58:	e3a02000 	mov	r2, #0
    4a5c:	e5331004 	ldr	r1, [r3, #-4]!
    4a60:	e153000c 	cmp	r3, r12
    4a64:	e1822001 	orr	r2, r2, r1
    4a68:	1afffffb 	bne	4a5c <__kernel_rem_pio2+0x39c>
    4a6c:	e3520000 	cmp	r2, #0
    4a70:	1a0001c9 	bne	519c <__kernel_rem_pio2+0xadc>
    4a74:	e59d4020 	ldr	r4, [sp, #32]
    4a78:	e2442001 	sub	r2, r4, #1
    4a7c:	e1a02102 	lsl	r2, r2, #2
    4a80:	e28dce26 	add	r12, sp, #608	; 0x260
    4a84:	e08c3002 	add	r3, r12, r2
    4a88:	e5133230 	ldr	r3, [r3, #-560]	; 0xfffffdd0
    4a8c:	e3530000 	cmp	r3, #0
    4a90:	1a0001d9 	bne	51fc <__kernel_rem_pio2+0xb3c>
    4a94:	e28de030 	add	lr, sp, #48	; 0x30
    4a98:	e08e2002 	add	r2, lr, r2
    4a9c:	e3a03001 	mov	r3, #1
    4aa0:	e5321004 	ldr	r1, [r2, #-4]!
    4aa4:	e3510000 	cmp	r1, #0
    4aa8:	e2833001 	add	r3, r3, #1
    4aac:	0afffffb 	beq	4aa0 <__kernel_rem_pio2+0x3e0>
    4ab0:	e59d4004 	ldr	r4, [sp, #4]
    4ab4:	e0843003 	add	r3, r4, r3
    4ab8:	e2848001 	add	r8, r4, #1
    4abc:	e1580003 	cmp	r8, r3
    4ac0:	e58d3024 	str	r3, [sp, #36]	; 0x24
    4ac4:	ca000031 	bgt	4b90 <__kernel_rem_pio2+0x4d0>
    4ac8:	e59d4004 	ldr	r4, [sp, #4]
    4acc:	e59dc028 	ldr	r12, [sp, #40]	; 0x28
    4ad0:	e084300c 	add	r3, r4, r12
    4ad4:	e59dc28c 	ldr	r12, [sp, #652]	; 0x28c
    4ad8:	e59d400c 	ldr	r4, [sp, #12]
    4adc:	e08c3103 	add	r3, r12, r3, lsl #2
    4ae0:	e59dc024 	ldr	r12, [sp, #36]	; 0x24
    4ae4:	e0849008 	add	r9, r4, r8
    4ae8:	e28d4d07 	add	r4, sp, #448	; 0x1c0
    4aec:	e0844188 	add	r4, r4, r8, lsl #3
    4af0:	e28cc001 	add	r12, r12, #1
    4af4:	e28de080 	add	lr, sp, #128	; 0x80
    4af8:	e98d0018 	stmib	sp, {r3, r4}
    4afc:	e58dc014 	str	r12, [sp, #20]
    4b00:	e08e9189 	add	r9, lr, r9, lsl #3
    4b04:	e59d4004 	ldr	r4, [sp, #4]
    4b08:	e5b40004 	ldr	r0, [r4, #4]!
    4b0c:	e58d4004 	str	r4, [sp, #4]
    4b10:	eb000426 	bl	5bb0 <__aeabi_i2d>
    4b14:	e59dc00c 	ldr	r12, [sp, #12]
    4b18:	e35c0000 	cmp	r12, #0
    4b1c:	e8a90003 	stmia	r9!, {r0, r1}
    4b20:	ba00001d 	blt	4b9c <__kernel_rem_pio2+0x4dc>
    4b24:	e088700b 	add	r7, r8, r11
    4b28:	e28de080 	add	lr, sp, #128	; 0x80
    4b2c:	e59da010 	ldr	r10, [sp, #16]
    4b30:	e08e7187 	add	r7, lr, r7, lsl #3
    4b34:	e3a04000 	mov	r4, #0
    4b38:	e3a05000 	mov	r5, #0
    4b3c:	e3a06000 	mov	r6, #0
    4b40:	e937000c 	ldmdb	r7!, {r2, r3}
    4b44:	e8ba0003 	ldm	r10!, {r0, r1}
    4b48:	eb00044f 	bl	5c8c <__aeabi_dmul>
    4b4c:	e1a02000 	mov	r2, r0
    4b50:	e1a03001 	mov	r3, r1
    4b54:	e1a00004 	mov	r0, r4
    4b58:	e1a01005 	mov	r1, r5
    4b5c:	eb000346 	bl	587c <__adddf3>
    4b60:	e2866001 	add	r6, r6, #1
    4b64:	e156000b 	cmp	r6, r11
    4b68:	e1a04000 	mov	r4, r0
    4b6c:	e1a05001 	mov	r5, r1
    4b70:	1afffff2 	bne	4b40 <__kernel_rem_pio2+0x480>
    4b74:	e59dc014 	ldr	r12, [sp, #20]
    4b78:	e2888001 	add	r8, r8, #1
    4b7c:	e158000c 	cmp	r8, r12
    4b80:	e59dc008 	ldr	r12, [sp, #8]
    4b84:	e8ac0030 	stmia	r12!, {r4, r5}
    4b88:	e58dc008 	str	r12, [sp, #8]
    4b8c:	1affffdc 	bne	4b04 <__kernel_rem_pio2+0x444>
    4b90:	e59dc024 	ldr	r12, [sp, #36]	; 0x24
    4b94:	e58dc004 	str	r12, [sp, #4]
    4b98:	eaffff20 	b	4820 <__kernel_rem_pio2+0x160>
    4b9c:	e3a04000 	mov	r4, #0
    4ba0:	e3a05000 	mov	r5, #0
    4ba4:	eafffff2 	b	4b74 <__kernel_rem_pio2+0x4b4>
    4ba8:	e1a02006 	mov	r2, r6
    4bac:	e1a03007 	mov	r3, r7
    4bb0:	e3a00000 	mov	r0, #0
    4bb4:	e59f1690 	ldr	r1, [pc, #1680]	; 524c <__kernel_rem_pio2+0xb8c>
    4bb8:	eb00032e 	bl	5878 <__aeabi_dsub>
    4bbc:	e3540000 	cmp	r4, #0
    4bc0:	e1a06000 	mov	r6, r0
    4bc4:	e1a07001 	mov	r7, r1
    4bc8:	0affff93 	beq	4a1c <__kernel_rem_pio2+0x35c>
    4bcc:	e59d2018 	ldr	r2, [sp, #24]
    4bd0:	e3a00000 	mov	r0, #0
    4bd4:	e59f1670 	ldr	r1, [pc, #1648]	; 524c <__kernel_rem_pio2+0xb8c>
    4bd8:	eb0002b6 	bl	56b8 <scalbn>
    4bdc:	e1a02000 	mov	r2, r0
    4be0:	e1a03001 	mov	r3, r1
    4be4:	e1a00006 	mov	r0, r6
    4be8:	e1a01007 	mov	r1, r7
    4bec:	eb000321 	bl	5878 <__aeabi_dsub>
    4bf0:	e1a06000 	mov	r6, r0
    4bf4:	e1a07001 	mov	r7, r1
    4bf8:	eaffff87 	b	4a1c <__kernel_rem_pio2+0x35c>
    4bfc:	1a00000e 	bne	4c3c <__kernel_rem_pio2+0x57c>
    4c00:	e59d4004 	ldr	r4, [sp, #4]
    4c04:	e28dce26 	add	r12, sp, #608	; 0x260
    4c08:	e08c3104 	add	r3, r12, r4, lsl #2
    4c0c:	e5135234 	ldr	r5, [r3, #-564]	; 0xfffffdcc
    4c10:	e1a05bc5 	asr	r5, r5, #23
    4c14:	eaffff56 	b	4974 <__kernel_rem_pio2+0x2b4>
    4c18:	e59dc004 	ldr	r12, [sp, #4]
    4c1c:	e28dee26 	add	lr, sp, #608	; 0x260
    4c20:	e24c3001 	sub	r3, r12, #1
    4c24:	e08e3103 	add	r3, lr, r3, lsl #2
    4c28:	e5132230 	ldr	r2, [r3, #-560]	; 0xfffffdd0
    4c2c:	e3c224ff 	bic	r2, r2, #-16777216	; 0xff000000
    4c30:	e3c22502 	bic	r2, r2, #8388608	; 0x800000
    4c34:	e5032230 	str	r2, [r3, #-560]	; 0xfffffdd0
    4c38:	eaffff75 	b	4a14 <__kernel_rem_pio2+0x354>
    4c3c:	e3a02000 	mov	r2, #0
    4c40:	e59f3608 	ldr	r3, [pc, #1544]	; 5250 <__kernel_rem_pio2+0xb90>
    4c44:	eb00057c 	bl	623c <__aeabi_dcmpge>
    4c48:	e3500000 	cmp	r0, #0
    4c4c:	03a05000 	moveq	r5, #0
    4c50:	0affff71 	beq	4a1c <__kernel_rem_pio2+0x35c>
    4c54:	e59d4004 	ldr	r4, [sp, #4]
    4c58:	e3540000 	cmp	r4, #0
    4c5c:	e3a05002 	mov	r5, #2
    4c60:	e2888001 	add	r8, r8, #1
    4c64:	caffff48 	bgt	498c <__kernel_rem_pio2+0x2cc>
    4c68:	e3a04000 	mov	r4, #0
    4c6c:	eaffff59 	b	49d8 <__kernel_rem_pio2+0x318>
    4c70:	e3a04000 	mov	r4, #0
    4c74:	e3a05000 	mov	r5, #0
    4c78:	eafffede 	b	47f8 <__kernel_rem_pio2+0x138>
    4c7c:	e59d4018 	ldr	r4, [sp, #24]
    4c80:	e1a00006 	mov	r0, r6
    4c84:	e2642000 	rsb	r2, r4, #0
    4c88:	e1a01007 	mov	r1, r7
    4c8c:	e58d500c 	str	r5, [sp, #12]
    4c90:	e58d8010 	str	r8, [sp, #16]
    4c94:	eb000287 	bl	56b8 <scalbn>
    4c98:	e3a02000 	mov	r2, #0
    4c9c:	e59f35a0 	ldr	r3, [pc, #1440]	; 5244 <__kernel_rem_pio2+0xb84>
    4ca0:	e1a04000 	mov	r4, r0
    4ca4:	e1a05001 	mov	r5, r1
    4ca8:	eb000563 	bl	623c <__aeabi_dcmpge>
    4cac:	e3500000 	cmp	r0, #0
    4cb0:	0a000153 	beq	5204 <__kernel_rem_pio2+0xb44>
    4cb4:	e3a02000 	mov	r2, #0
    4cb8:	e59f3580 	ldr	r3, [pc, #1408]	; 5240 <__kernel_rem_pio2+0xb80>
    4cbc:	e1a00004 	mov	r0, r4
    4cc0:	e1a01005 	mov	r1, r5
    4cc4:	eb0003f0 	bl	5c8c <__aeabi_dmul>
    4cc8:	eb000567 	bl	626c <__aeabi_d2iz>
    4ccc:	eb0003b7 	bl	5bb0 <__aeabi_i2d>
    4cd0:	e3a02000 	mov	r2, #0
    4cd4:	e59f3568 	ldr	r3, [pc, #1384]	; 5244 <__kernel_rem_pio2+0xb84>
    4cd8:	e1a06000 	mov	r6, r0
    4cdc:	e1a07001 	mov	r7, r1
    4ce0:	eb0003e9 	bl	5c8c <__aeabi_dmul>
    4ce4:	e1a02000 	mov	r2, r0
    4ce8:	e1a03001 	mov	r3, r1
    4cec:	e1a00004 	mov	r0, r4
    4cf0:	e1a01005 	mov	r1, r5
    4cf4:	eb0002df 	bl	5878 <__aeabi_dsub>
    4cf8:	eb00055b 	bl	626c <__aeabi_d2iz>
    4cfc:	e59d4004 	ldr	r4, [sp, #4]
    4d00:	e28dce26 	add	r12, sp, #608	; 0x260
    4d04:	e08c3104 	add	r3, r12, r4, lsl #2
    4d08:	e5030230 	str	r0, [r3, #-560]	; 0xfffffdd0
    4d0c:	e1a01007 	mov	r1, r7
    4d10:	e1a00006 	mov	r0, r6
    4d14:	eb000554 	bl	626c <__aeabi_d2iz>
    4d18:	e2844001 	add	r4, r4, #1
    4d1c:	e28dee26 	add	lr, sp, #608	; 0x260
    4d20:	e08e3104 	add	r3, lr, r4, lsl #2
    4d24:	e58d4004 	str	r4, [sp, #4]
    4d28:	e59d4018 	ldr	r4, [sp, #24]
    4d2c:	e2844018 	add	r4, r4, #24
    4d30:	e58d4018 	str	r4, [sp, #24]
    4d34:	e5030230 	str	r0, [r3, #-560]	; 0xfffffdd0
    4d38:	e3a00000 	mov	r0, #0
    4d3c:	e59f1508 	ldr	r1, [pc, #1288]	; 524c <__kernel_rem_pio2+0xb8c>
    4d40:	e59d2018 	ldr	r2, [sp, #24]
    4d44:	eb00025b 	bl	56b8 <scalbn>
    4d48:	e59dc004 	ldr	r12, [sp, #4]
    4d4c:	e35c0000 	cmp	r12, #0
    4d50:	e1a04000 	mov	r4, r0
    4d54:	e1a05001 	mov	r5, r1
    4d58:	ba00003b 	blt	4e4c <__kernel_rem_pio2+0x78c>
    4d5c:	e28c6001 	add	r6, r12, #1
    4d60:	e28d9d07 	add	r9, sp, #448	; 0x1c0
    4d64:	e28de030 	add	lr, sp, #48	; 0x30
    4d68:	e08e7106 	add	r7, lr, r6, lsl #2
    4d6c:	e0896186 	add	r6, r9, r6, lsl #3
    4d70:	e5370004 	ldr	r0, [r7, #-4]!
    4d74:	eb00038d 	bl	5bb0 <__aeabi_i2d>
    4d78:	e1a02004 	mov	r2, r4
    4d7c:	e1a03005 	mov	r3, r5
    4d80:	eb0003c1 	bl	5c8c <__aeabi_dmul>
    4d84:	e3a02000 	mov	r2, #0
    4d88:	e9260003 	stmdb	r6!, {r0, r1}
    4d8c:	e59f34ac 	ldr	r3, [pc, #1196]	; 5240 <__kernel_rem_pio2+0xb80>
    4d90:	e1a00004 	mov	r0, r4
    4d94:	e1a01005 	mov	r1, r5
    4d98:	eb0003bb 	bl	5c8c <__aeabi_dmul>
    4d9c:	e1560009 	cmp	r6, r9
    4da0:	e1a04000 	mov	r4, r0
    4da4:	e1a05001 	mov	r5, r1
    4da8:	1afffff0 	bne	4d70 <__kernel_rem_pio2+0x6b0>
    4dac:	e59da004 	ldr	r10, [sp, #4]
    4db0:	e59db020 	ldr	r11, [sp, #32]
    4db4:	e58da008 	str	r10, [sp, #8]
    4db8:	e3a08000 	mov	r8, #0
    4dbc:	e35b0000 	cmp	r11, #0
    4dc0:	b3a04000 	movlt	r4, #0
    4dc4:	b3a05000 	movlt	r5, #0
    4dc8:	ba000015 	blt	4e24 <__kernel_rem_pio2+0x764>
    4dcc:	e59d4008 	ldr	r4, [sp, #8]
    4dd0:	e59fa47c 	ldr	r10, [pc, #1148]	; 5254 <__kernel_rem_pio2+0xb94>
    4dd4:	e0897184 	add	r7, r9, r4, lsl #3
    4dd8:	e3a05000 	mov	r5, #0
    4ddc:	e3a04000 	mov	r4, #0
    4de0:	e3a06000 	mov	r6, #0
    4de4:	ea000001 	b	4df0 <__kernel_rem_pio2+0x730>
    4de8:	e1560008 	cmp	r6, r8
    4dec:	ca00000c 	bgt	4e24 <__kernel_rem_pio2+0x764>
    4df0:	e8b7000c 	ldm	r7!, {r2, r3}
    4df4:	e8ba0003 	ldm	r10!, {r0, r1}
    4df8:	eb0003a3 	bl	5c8c <__aeabi_dmul>
    4dfc:	e1a02000 	mov	r2, r0
    4e00:	e1a03001 	mov	r3, r1
    4e04:	e1a00004 	mov	r0, r4
    4e08:	e1a01005 	mov	r1, r5
    4e0c:	eb00029a 	bl	587c <__adddf3>
    4e10:	e2866001 	add	r6, r6, #1
    4e14:	e15b0006 	cmp	r11, r6
    4e18:	e1a04000 	mov	r4, r0
    4e1c:	e1a05001 	mov	r5, r1
    4e20:	aafffff0 	bge	4de8 <__kernel_rem_pio2+0x728>
    4e24:	e59dc008 	ldr	r12, [sp, #8]
    4e28:	e28d0e26 	add	r0, sp, #608	; 0x260
    4e2c:	e24cc001 	sub	r12, r12, #1
    4e30:	e0803188 	add	r3, r0, r8, lsl #3
    4e34:	e37c0001 	cmn	r12, #1
    4e38:	e58dc008 	str	r12, [sp, #8]
    4e3c:	e5034140 	str	r4, [r3, #-320]	; 0xfffffec0
    4e40:	e503513c 	str	r5, [r3, #-316]	; 0xfffffec4
    4e44:	e2888001 	add	r8, r8, #1
    4e48:	1affffdb 	bne	4dbc <__kernel_rem_pio2+0x6fc>
    4e4c:	e59dc288 	ldr	r12, [sp, #648]	; 0x288
    4e50:	e35c0003 	cmp	r12, #3
    4e54:	979ff10c 	ldrls	pc, [pc, r12, lsl #2]
    4e58:	ea000015 	b	4eb4 <__kernel_rem_pio2+0x7f4>
    4e5c:	0000513c 	.word	0x0000513c
    4e60:	00005058 	.word	0x00005058
    4e64:	00005058 	.word	0x00005058
    4e68:	00004ec8 	.word	0x00004ec8
    4e6c:	e59d000c 	ldr	r0, [sp, #12]
    4e70:	e3a0c000 	mov	r12, #0
    4e74:	e3500000 	cmp	r0, #0
    4e78:	e1a0400c 	mov	r4, r12
    4e7c:	0a000068 	beq	5024 <__kernel_rem_pio2+0x964>
    4e80:	e59d2124 	ldr	r2, [sp, #292]	; 0x124
    4e84:	e59d001c 	ldr	r0, [sp, #28]
    4e88:	e59d1120 	ldr	r1, [sp, #288]	; 0x120
    4e8c:	e2822102 	add	r2, r2, #-2147483648	; 0x80000000
    4e90:	e59d312c 	ldr	r3, [sp, #300]	; 0x12c
    4e94:	e8800006 	stm	r0, {r1, r2}
    4e98:	e59d2128 	ldr	r2, [sp, #296]	; 0x128
    4e9c:	e2833102 	add	r3, r3, #-2147483648	; 0x80000000
    4ea0:	e2844102 	add	r4, r4, #-2147483648	; 0x80000000
    4ea4:	e5802008 	str	r2, [r0, #8]
    4ea8:	e580300c 	str	r3, [r0, #12]
    4eac:	e580c010 	str	r12, [r0, #16]
    4eb0:	e5804014 	str	r4, [r0, #20]
    4eb4:	e59d4010 	ldr	r4, [sp, #16]
    4eb8:	e2040007 	and	r0, r4, #7
    4ebc:	e28ddf99 	add	sp, sp, #612	; 0x264
    4ec0:	e8bd4ff0 	pop	{r4, r5, r6, r7, r8, r9, r10, r11, lr}
    4ec4:	e12fff1e 	bx	lr
    4ec8:	e59d4004 	ldr	r4, [sp, #4]
    4ecc:	e3540000 	cmp	r4, #0
    4ed0:	daffffe5 	ble	4e6c <__kernel_rem_pio2+0x7ac>
    4ed4:	e59d4004 	ldr	r4, [sp, #4]
    4ed8:	e28dbe12 	add	r11, sp, #288	; 0x120
    4edc:	e08ba184 	add	r10, r11, r4, lsl #3
    4ee0:	e58da008 	str	r10, [sp, #8]
    4ee4:	e58da014 	str	r10, [sp, #20]
    4ee8:	e93a0300 	ldmdb	r10!, {r8, r9}
    4eec:	e28a7008 	add	r7, r10, #8
    4ef0:	e89700c0 	ldm	r7, {r6, r7}
    4ef4:	e1a00008 	mov	r0, r8
    4ef8:	e1a02006 	mov	r2, r6
    4efc:	e1a03007 	mov	r3, r7
    4f00:	e1a01009 	mov	r1, r9
    4f04:	eb00025c 	bl	587c <__adddf3>
    4f08:	e1a04000 	mov	r4, r0
    4f0c:	e1a05001 	mov	r5, r1
    4f10:	e1a02004 	mov	r2, r4
    4f14:	e1a03005 	mov	r3, r5
    4f18:	e1a00008 	mov	r0, r8
    4f1c:	e1a01009 	mov	r1, r9
    4f20:	eb000254 	bl	5878 <__aeabi_dsub>
    4f24:	e1a02000 	mov	r2, r0
    4f28:	e1a03001 	mov	r3, r1
    4f2c:	e1a00006 	mov	r0, r6
    4f30:	e1a01007 	mov	r1, r7
    4f34:	eb000250 	bl	587c <__adddf3>
    4f38:	e59dc008 	ldr	r12, [sp, #8]
    4f3c:	e58a0008 	str	r0, [r10, #8]
    4f40:	e58a100c 	str	r1, [r10, #12]
    4f44:	e92c0030 	stmdb	r12!, {r4, r5}
    4f48:	e15a000b 	cmp	r10, r11
    4f4c:	e58dc008 	str	r12, [sp, #8]
    4f50:	1affffe4 	bne	4ee8 <__kernel_rem_pio2+0x828>
    4f54:	e59d4004 	ldr	r4, [sp, #4]
    4f58:	e3540001 	cmp	r4, #1
    4f5c:	e59da014 	ldr	r10, [sp, #20]
    4f60:	daffffc1 	ble	4e6c <__kernel_rem_pio2+0x7ac>
    4f64:	e28bc008 	add	r12, r11, #8
    4f68:	e58dc008 	str	r12, [sp, #8]
    4f6c:	e1a0c00a 	mov	r12, r10
    4f70:	e93a0300 	ldmdb	r10!, {r8, r9}
    4f74:	e28a7008 	add	r7, r10, #8
    4f78:	e89700c0 	ldm	r7, {r6, r7}
    4f7c:	e1a00008 	mov	r0, r8
    4f80:	e1a02006 	mov	r2, r6
    4f84:	e1a03007 	mov	r3, r7
    4f88:	e1a01009 	mov	r1, r9
    4f8c:	e58dc000 	str	r12, [sp]
    4f90:	eb000239 	bl	587c <__adddf3>
    4f94:	e1a04000 	mov	r4, r0
    4f98:	e1a05001 	mov	r5, r1
    4f9c:	e1a02004 	mov	r2, r4
    4fa0:	e1a03005 	mov	r3, r5
    4fa4:	e1a00008 	mov	r0, r8
    4fa8:	e1a01009 	mov	r1, r9
    4fac:	eb000231 	bl	5878 <__aeabi_dsub>
    4fb0:	e1a02000 	mov	r2, r0
    4fb4:	e1a03001 	mov	r3, r1
    4fb8:	e1a00006 	mov	r0, r6
    4fbc:	e1a01007 	mov	r1, r7
    4fc0:	eb00022d 	bl	587c <__adddf3>
    4fc4:	e59de008 	ldr	lr, [sp, #8]
    4fc8:	e59dc000 	ldr	r12, [sp]
    4fcc:	e15a000e 	cmp	r10, lr
    4fd0:	e58a0008 	str	r0, [r10, #8]
    4fd4:	e58a100c 	str	r1, [r10, #12]
    4fd8:	e92c0030 	stmdb	r12!, {r4, r5}
    4fdc:	1affffe3 	bne	4f70 <__kernel_rem_pio2+0x8b0>
    4fe0:	e59d4004 	ldr	r4, [sp, #4]
    4fe4:	e3a0c000 	mov	r12, #0
    4fe8:	e2845001 	add	r5, r4, #1
    4fec:	e08b5185 	add	r5, r11, r5, lsl #3
    4ff0:	e1a0400c 	mov	r4, r12
    4ff4:	e28bb010 	add	r11, r11, #16
    4ff8:	e1a0000c 	mov	r0, r12
    4ffc:	e1a01004 	mov	r1, r4
    5000:	e935000c 	ldmdb	r5!, {r2, r3}
    5004:	eb00021c 	bl	587c <__adddf3>
    5008:	e155000b 	cmp	r5, r11
    500c:	e1a0c000 	mov	r12, r0
    5010:	e1a04001 	mov	r4, r1
    5014:	1afffff7 	bne	4ff8 <__kernel_rem_pio2+0x938>
    5018:	e59d000c 	ldr	r0, [sp, #12]
    501c:	e3500000 	cmp	r0, #0
    5020:	1affff96 	bne	4e80 <__kernel_rem_pio2+0x7c0>
    5024:	e1a03004 	mov	r3, r4
    5028:	e28d1e12 	add	r1, sp, #288	; 0x120
    502c:	e8910003 	ldm	r1, {r0, r1}
    5030:	e59d401c 	ldr	r4, [sp, #28]
    5034:	e8840003 	stm	r4, {r0, r1}
    5038:	e28d1f4a 	add	r1, sp, #296	; 0x128
    503c:	e8910003 	ldm	r1, {r0, r1}
    5040:	e1a0200c 	mov	r2, r12
    5044:	e5840008 	str	r0, [r4, #8]
    5048:	e584100c 	str	r1, [r4, #12]
    504c:	e5842010 	str	r2, [r4, #16]
    5050:	e5843014 	str	r3, [r4, #20]
    5054:	eaffff96 	b	4eb4 <__kernel_rem_pio2+0x7f4>
    5058:	e59dc004 	ldr	r12, [sp, #4]
    505c:	e35c0000 	cmp	r12, #0
    5060:	b3a0e000 	movlt	lr, #0
    5064:	b1a0c00e 	movlt	r12, lr
    5068:	ba00000d 	blt	50a4 <__kernel_rem_pio2+0x9e4>
    506c:	e59dc004 	ldr	r12, [sp, #4]
    5070:	e28d5e12 	add	r5, sp, #288	; 0x120
    5074:	e28c4001 	add	r4, r12, #1
    5078:	e3a0e000 	mov	lr, #0
    507c:	e0854184 	add	r4, r5, r4, lsl #3
    5080:	e1a0c00e 	mov	r12, lr
    5084:	e1a0000e 	mov	r0, lr
    5088:	e1a0100c 	mov	r1, r12
    508c:	e934000c 	ldmdb	r4!, {r2, r3}
    5090:	eb0001f9 	bl	587c <__adddf3>
    5094:	e1540005 	cmp	r4, r5
    5098:	e1a0e000 	mov	lr, r0
    509c:	e1a0c001 	mov	r12, r1
    50a0:	1afffff7 	bne	5084 <__kernel_rem_pio2+0x9c4>
    50a4:	e59d400c 	ldr	r4, [sp, #12]
    50a8:	e3540000 	cmp	r4, #0
    50ac:	128c3102 	addne	r3, r12, #-2147483648	; 0x80000000
    50b0:	01a0300c 	moveq	r3, r12
    50b4:	e1a01003 	mov	r1, r3
    50b8:	e1a0300c 	mov	r3, r12
    50bc:	e59dc01c 	ldr	r12, [sp, #28]
    50c0:	e1a0000e 	mov	r0, lr
    50c4:	e88c0003 	stm	r12, {r0, r1}
    50c8:	e1a0200e 	mov	r2, lr
    50cc:	e28d1e12 	add	r1, sp, #288	; 0x120
    50d0:	e8910003 	ldm	r1, {r0, r1}
    50d4:	eb0001e7 	bl	5878 <__aeabi_dsub>
    50d8:	e59d4004 	ldr	r4, [sp, #4]
    50dc:	e3540000 	cmp	r4, #0
    50e0:	e1a05000 	mov	r5, r0
    50e4:	e1a0c001 	mov	r12, r1
    50e8:	da00000a 	ble	5118 <__kernel_rem_pio2+0xa58>
    50ec:	e59de004 	ldr	lr, [sp, #4]
    50f0:	e28d4f4a 	add	r4, sp, #296	; 0x128
    50f4:	e084618e 	add	r6, r4, lr, lsl #3
    50f8:	e1a00005 	mov	r0, r5
    50fc:	e1a0100c 	mov	r1, r12
    5100:	e8b4000c 	ldm	r4!, {r2, r3}
    5104:	eb0001dc 	bl	587c <__adddf3>
    5108:	e1540006 	cmp	r4, r6
    510c:	e1a05000 	mov	r5, r0
    5110:	e1a0c001 	mov	r12, r1
    5114:	1afffff7 	bne	50f8 <__kernel_rem_pio2+0xa38>
    5118:	e59d400c 	ldr	r4, [sp, #12]
    511c:	e3540000 	cmp	r4, #0
    5120:	128cc102 	addne	r12, r12, #-2147483648	; 0x80000000
    5124:	e1a0300c 	mov	r3, r12
    5128:	e59dc01c 	ldr	r12, [sp, #28]
    512c:	e1a02005 	mov	r2, r5
    5130:	e58c2008 	str	r2, [r12, #8]
    5134:	e58c300c 	str	r3, [r12, #12]
    5138:	eaffff5d 	b	4eb4 <__kernel_rem_pio2+0x7f4>
    513c:	e59d4004 	ldr	r4, [sp, #4]
    5140:	e3540000 	cmp	r4, #0
    5144:	ba000038 	blt	522c <__kernel_rem_pio2+0xb6c>
    5148:	e2846001 	add	r6, r4, #1
    514c:	e28d5e12 	add	r5, sp, #288	; 0x120
    5150:	e3a04000 	mov	r4, #0
    5154:	e0856186 	add	r6, r5, r6, lsl #3
    5158:	e1a0c004 	mov	r12, r4
    515c:	e1a00004 	mov	r0, r4
    5160:	e1a0100c 	mov	r1, r12
    5164:	e936000c 	ldmdb	r6!, {r2, r3}
    5168:	eb0001c3 	bl	587c <__adddf3>
    516c:	e1560005 	cmp	r6, r5
    5170:	e1a04000 	mov	r4, r0
    5174:	e1a0c001 	mov	r12, r1
    5178:	1afffff7 	bne	515c <__kernel_rem_pio2+0xa9c>
    517c:	e59d000c 	ldr	r0, [sp, #12]
    5180:	e3500000 	cmp	r0, #0
    5184:	e1a02004 	mov	r2, r4
    5188:	128cc102 	addne	r12, r12, #-2147483648	; 0x80000000
    518c:	e59d401c 	ldr	r4, [sp, #28]
    5190:	e1a0300c 	mov	r3, r12
    5194:	e884000c 	stm	r4, {r2, r3}
    5198:	eaffff45 	b	4eb4 <__kernel_rem_pio2+0x7f4>
    519c:	e1a03100 	lsl	r3, r0, #2
    51a0:	e28dce26 	add	r12, sp, #608	; 0x260
    51a4:	e08c2003 	add	r2, r12, r3
    51a8:	e59d4018 	ldr	r4, [sp, #24]
    51ac:	e5122230 	ldr	r2, [r2, #-560]	; 0xfffffdd0
    51b0:	e2444018 	sub	r4, r4, #24
    51b4:	e3520000 	cmp	r2, #0
    51b8:	e58d8010 	str	r8, [sp, #16]
    51bc:	e58d500c 	str	r5, [sp, #12]
    51c0:	e58d4018 	str	r4, [sp, #24]
    51c4:	1a000016 	bne	5224 <__kernel_rem_pio2+0xb64>
    51c8:	e28dc030 	add	r12, sp, #48	; 0x30
    51cc:	e58d0004 	str	r0, [sp, #4]
    51d0:	e08c3003 	add	r3, r12, r3
    51d4:	e1a02000 	mov	r2, r0
    51d8:	e1a01004 	mov	r1, r4
    51dc:	e5330004 	ldr	r0, [r3, #-4]!
    51e0:	e3500000 	cmp	r0, #0
    51e4:	e2422001 	sub	r2, r2, #1
    51e8:	e2411018 	sub	r1, r1, #24
    51ec:	0afffffa 	beq	51dc <__kernel_rem_pio2+0xb1c>
    51f0:	e58d2004 	str	r2, [sp, #4]
    51f4:	e58d1018 	str	r1, [sp, #24]
    51f8:	eafffece 	b	4d38 <__kernel_rem_pio2+0x678>
    51fc:	e3a03001 	mov	r3, #1
    5200:	eafffe2a 	b	4ab0 <__kernel_rem_pio2+0x3f0>
    5204:	e1a00004 	mov	r0, r4
    5208:	e1a01005 	mov	r1, r5
    520c:	eb000416 	bl	626c <__aeabi_d2iz>
    5210:	e59dc004 	ldr	r12, [sp, #4]
    5214:	e28dee26 	add	lr, sp, #608	; 0x260
    5218:	e08e310c 	add	r3, lr, r12, lsl #2
    521c:	e5030230 	str	r0, [r3, #-560]	; 0xfffffdd0
    5220:	eafffec4 	b	4d38 <__kernel_rem_pio2+0x678>
    5224:	e58d0004 	str	r0, [sp, #4]
    5228:	eafffec2 	b	4d38 <__kernel_rem_pio2+0x678>
    522c:	e3a04000 	mov	r4, #0
    5230:	e1a0c004 	mov	r12, r4
    5234:	eaffffd0 	b	517c <__kernel_rem_pio2+0xabc>
    5238:	2aaaaaab 	.word	0x2aaaaaab
    523c:	00007940 	.word	0x00007940
    5240:	3e700000 	.word	0x3e700000
    5244:	41700000 	.word	0x41700000
    5248:	40200000 	.word	0x40200000
    524c:	3ff00000 	.word	0x3ff00000
    5250:	3fe00000 	.word	0x3fe00000
    5254:	00007950 	.word	0x00007950

00005258 <__kernel_sin>:
    5258:	e92d4ff0 	push	{r4, r5, r6, r7, r8, r9, r10, r11, lr}
    525c:	e3c1c102 	bic	r12, r1, #-2147483648	; 0x80000000
    5260:	e35c05f9 	cmp	r12, #1044381696	; 0x3e400000
    5264:	e24dd014 	sub	sp, sp, #20
    5268:	e1a04000 	mov	r4, r0
    526c:	e1a05001 	mov	r5, r1
    5270:	e1a06000 	mov	r6, r0
    5274:	e1a07001 	mov	r7, r1
    5278:	e1a08002 	mov	r8, r2
    527c:	e1a09003 	mov	r9, r3
    5280:	aa000002 	bge	5290 <__kernel_sin+0x38>
    5284:	eb0003f8 	bl	626c <__aeabi_d2iz>
    5288:	e3500000 	cmp	r0, #0
    528c:	0a000052 	beq	53dc <__kernel_sin+0x184>
    5290:	e1a02004 	mov	r2, r4
    5294:	e1a03005 	mov	r3, r5
    5298:	e1a00004 	mov	r0, r4
    529c:	e1a01005 	mov	r1, r5
    52a0:	eb000279 	bl	5c8c <__aeabi_dmul>
    52a4:	e1a02004 	mov	r2, r4
    52a8:	e1a03005 	mov	r3, r5
    52ac:	e1a06000 	mov	r6, r0
    52b0:	e1a07001 	mov	r7, r1
    52b4:	eb000274 	bl	5c8c <__aeabi_dmul>
    52b8:	e28f3d06 	add	r3, pc, #384	; 0x180
    52bc:	e893000c 	ldm	r3, {r2, r3}
    52c0:	e1a0a000 	mov	r10, r0
    52c4:	e1a0b001 	mov	r11, r1
    52c8:	e1a00006 	mov	r0, r6
    52cc:	e1a01007 	mov	r1, r7
    52d0:	eb00026d 	bl	5c8c <__aeabi_dmul>
    52d4:	e28f3f5b 	add	r3, pc, #364	; 0x16c
    52d8:	e893000c 	ldm	r3, {r2, r3}
    52dc:	eb000165 	bl	5878 <__aeabi_dsub>
    52e0:	e1a02006 	mov	r2, r6
    52e4:	e1a03007 	mov	r3, r7
    52e8:	eb000267 	bl	5c8c <__aeabi_dmul>
    52ec:	e28f3f57 	add	r3, pc, #348	; 0x15c
    52f0:	e893000c 	ldm	r3, {r2, r3}
    52f4:	eb000160 	bl	587c <__adddf3>
    52f8:	e1a02006 	mov	r2, r6
    52fc:	e1a03007 	mov	r3, r7
    5300:	eb000261 	bl	5c8c <__aeabi_dmul>
    5304:	e28f3f53 	add	r3, pc, #332	; 0x14c
    5308:	e893000c 	ldm	r3, {r2, r3}
    530c:	eb000159 	bl	5878 <__aeabi_dsub>
    5310:	e1a02006 	mov	r2, r6
    5314:	e1a03007 	mov	r3, r7
    5318:	eb00025b 	bl	5c8c <__aeabi_dmul>
    531c:	e28f3f4f 	add	r3, pc, #316	; 0x13c
    5320:	e893000c 	ldm	r3, {r2, r3}
    5324:	eb000154 	bl	587c <__adddf3>
    5328:	e59d3038 	ldr	r3, [sp, #56]	; 0x38
    532c:	e3530000 	cmp	r3, #0
    5330:	e88d0003 	stm	sp, {r0, r1}
    5334:	0a00002d 	beq	53f0 <__kernel_sin+0x198>
    5338:	e3a02000 	mov	r2, #0
    533c:	e59f312c 	ldr	r3, [pc, #300]	; 5470 <__kernel_sin+0x218>
    5340:	e1a00008 	mov	r0, r8
    5344:	e1a01009 	mov	r1, r9
    5348:	eb00024f 	bl	5c8c <__aeabi_dmul>
    534c:	e89d000c 	ldm	sp, {r2, r3}
    5350:	e58d0008 	str	r0, [sp, #8]
    5354:	e58d100c 	str	r1, [sp, #12]
    5358:	e1a0000a 	mov	r0, r10
    535c:	e1a0100b 	mov	r1, r11
    5360:	eb000249 	bl	5c8c <__aeabi_dmul>
    5364:	e1a02000 	mov	r2, r0
    5368:	e1a03001 	mov	r3, r1
    536c:	e28d1008 	add	r1, sp, #8
    5370:	e8910003 	ldm	r1, {r0, r1}
    5374:	eb00013f 	bl	5878 <__aeabi_dsub>
    5378:	e1a02006 	mov	r2, r6
    537c:	e1a03007 	mov	r3, r7
    5380:	eb000241 	bl	5c8c <__aeabi_dmul>
    5384:	e1a02008 	mov	r2, r8
    5388:	e1a03009 	mov	r3, r9
    538c:	eb000139 	bl	5878 <__aeabi_dsub>
    5390:	e28f30d0 	add	r3, pc, #208	; 0xd0
    5394:	e893000c 	ldm	r3, {r2, r3}
    5398:	e1a06000 	mov	r6, r0
    539c:	e1a07001 	mov	r7, r1
    53a0:	e1a0000a 	mov	r0, r10
    53a4:	e1a0100b 	mov	r1, r11
    53a8:	eb000237 	bl	5c8c <__aeabi_dmul>
    53ac:	e1a02000 	mov	r2, r0
    53b0:	e1a03001 	mov	r3, r1
    53b4:	e1a00006 	mov	r0, r6
    53b8:	e1a01007 	mov	r1, r7
    53bc:	eb00012e 	bl	587c <__adddf3>
    53c0:	e1a02000 	mov	r2, r0
    53c4:	e1a03001 	mov	r3, r1
    53c8:	e1a00004 	mov	r0, r4
    53cc:	e1a01005 	mov	r1, r5
    53d0:	eb000128 	bl	5878 <__aeabi_dsub>
    53d4:	e1a04000 	mov	r4, r0
    53d8:	e1a05001 	mov	r5, r1
    53dc:	e1a00004 	mov	r0, r4
    53e0:	e1a01005 	mov	r1, r5
    53e4:	e28dd014 	add	sp, sp, #20
    53e8:	e8bd4ff0 	pop	{r4, r5, r6, r7, r8, r9, r10, r11, lr}
    53ec:	e12fff1e 	bx	lr
    53f0:	e1a02000 	mov	r2, r0
    53f4:	e1a03001 	mov	r3, r1
    53f8:	e1a00006 	mov	r0, r6
    53fc:	e1a01007 	mov	r1, r7
    5400:	eb000221 	bl	5c8c <__aeabi_dmul>
    5404:	e28f305c 	add	r3, pc, #92	; 0x5c
    5408:	e893000c 	ldm	r3, {r2, r3}
    540c:	eb000119 	bl	5878 <__aeabi_dsub>
    5410:	e1a0200a 	mov	r2, r10
    5414:	e1a0300b 	mov	r3, r11
    5418:	eb00021b 	bl	5c8c <__aeabi_dmul>
    541c:	e1a02000 	mov	r2, r0
    5420:	e1a03001 	mov	r3, r1
    5424:	e1a00004 	mov	r0, r4
    5428:	e1a01005 	mov	r1, r5
    542c:	eb000112 	bl	587c <__adddf3>
    5430:	e1a04000 	mov	r4, r0
    5434:	e1a05001 	mov	r5, r1
    5438:	eaffffe7 	b	53dc <__kernel_sin+0x184>
    543c:	e1a00000 	nop			; (mov r0, r0)
    5440:	5acfd57c 	.word	0x5acfd57c
    5444:	3de5d93a 	.word	0x3de5d93a
    5448:	8a2b9ceb 	.word	0x8a2b9ceb
    544c:	3e5ae5e6 	.word	0x3e5ae5e6
    5450:	57b1fe7d 	.word	0x57b1fe7d
    5454:	3ec71de3 	.word	0x3ec71de3
    5458:	19c161d5 	.word	0x19c161d5
    545c:	3f2a01a0 	.word	0x3f2a01a0
    5460:	1110f8a6 	.word	0x1110f8a6
    5464:	3f811111 	.word	0x3f811111
    5468:	55555549 	.word	0x55555549
    546c:	3fc55555 	.word	0x3fc55555
    5470:	3fe00000 	.word	0x3fe00000
    5474:	e1a00000 	nop			; (mov r0, r0)

00005478 <fabs>:
    5478:	e3c11102 	bic	r1, r1, #-2147483648	; 0x80000000
    547c:	e12fff1e 	bx	lr

00005480 <finite>:
    5480:	e3811102 	orr	r1, r1, #-2147483648	; 0x80000000
    5484:	e2810601 	add	r0, r1, #1048576	; 0x100000
    5488:	e1a00fa0 	lsr	r0, r0, #31
    548c:	e12fff1e 	bx	lr

00005490 <__fpclassifyd>:
    5490:	e1902001 	orrs	r2, r0, r1
    5494:	1a000001 	bne	54a0 <__fpclassifyd+0x10>
    5498:	e3a00002 	mov	r0, #2
    549c:	e12fff1e 	bx	lr
    54a0:	e2702001 	rsbs	r2, r0, #1
    54a4:	33a02000 	movcc	r2, #0
    54a8:	e3510102 	cmp	r1, #-2147483648	; 0x80000000
    54ac:	03500000 	cmpeq	r0, #0
    54b0:	0afffff8 	beq	5498 <__fpclassifyd+0x8>
    54b4:	e3c13102 	bic	r3, r1, #-2147483648	; 0x80000000
    54b8:	e59f1034 	ldr	r1, [pc, #52]	; 54f4 <__fpclassifyd+0x64>
    54bc:	e2430601 	sub	r0, r3, #1048576	; 0x100000
    54c0:	e1500001 	cmp	r0, r1
    54c4:	8a000001 	bhi	54d0 <__fpclassifyd+0x40>
    54c8:	e3a00004 	mov	r0, #4
    54cc:	e12fff1e 	bx	lr
    54d0:	e3530601 	cmp	r3, #1048576	; 0x100000
    54d4:	2a000001 	bcs	54e0 <__fpclassifyd+0x50>
    54d8:	e3a00003 	mov	r0, #3
    54dc:	e12fff1e 	bx	lr
    54e0:	e59f0010 	ldr	r0, [pc, #16]	; 54f8 <__fpclassifyd+0x68>
    54e4:	e1530000 	cmp	r3, r0
    54e8:	13a00000 	movne	r0, #0
    54ec:	02020001 	andeq	r0, r2, #1
    54f0:	e12fff1e 	bx	lr
    54f4:	7fdfffff 	.word	0x7fdfffff
    54f8:	7ff00000 	.word	0x7ff00000

000054fc <matherr>:
    54fc:	e3a00000 	mov	r0, #0
    5500:	e12fff1e 	bx	lr

00005504 <nan>:
    5504:	e3a00000 	mov	r0, #0
    5508:	e59f1000 	ldr	r1, [pc]	; 5510 <nan+0xc>
    550c:	e12fff1e 	bx	lr
    5510:	7ff80000 	.word	0x7ff80000

00005514 <rint>:
    5514:	e92d43f0 	push	{r4, r5, r6, r7, r8, r9, lr}
    5518:	e1a07081 	lsl	r7, r1, #1
    551c:	e1a07aa7 	lsr	r7, r7, #21
    5520:	e247cfff 	sub	r12, r7, #1020	; 0x3fc
    5524:	e24cc003 	sub	r12, r12, #3
    5528:	e35c0013 	cmp	r12, #19
    552c:	e24dd00c 	sub	sp, sp, #12
    5530:	e1a02000 	mov	r2, r0
    5534:	e1a03001 	mov	r3, r1
    5538:	e1a04000 	mov	r4, r0
    553c:	e1a05001 	mov	r5, r1
    5540:	e1a06001 	mov	r6, r1
    5544:	e1a08fa1 	lsr	r8, r1, #31
    5548:	ca000026 	bgt	55e8 <rint+0xd4>
    554c:	e35c0000 	cmp	r12, #0
    5550:	ba000038 	blt	5638 <rint+0x124>
    5554:	e59f1150 	ldr	r1, [pc, #336]	; 56ac <rint+0x198>
    5558:	e1a01c51 	asr	r1, r1, r12
    555c:	e0010003 	and	r0, r1, r3
    5560:	e1900002 	orrs	r0, r0, r2
    5564:	0a00001a 	beq	55d4 <rint+0xc0>
    5568:	e1a010a1 	lsr	r1, r1, #1
    556c:	e0013003 	and	r3, r1, r3
    5570:	e1934002 	orrs	r4, r3, r2
    5574:	0a000005 	beq	5590 <rint+0x7c>
    5578:	e1c51001 	bic	r1, r5, r1
    557c:	e3a05701 	mov	r5, #262144	; 0x40000
    5580:	e1815c55 	orr	r5, r1, r5, asr r12
    5584:	e35c0013 	cmp	r12, #19
    5588:	03a04102 	moveq	r4, #-2147483648	; 0x80000000
    558c:	13a04000 	movne	r4, #0
    5590:	e59f3118 	ldr	r3, [pc, #280]	; 56b0 <rint+0x19c>
    5594:	e0838188 	add	r8, r3, r8, lsl #3
    5598:	e8980300 	ldm	r8, {r8, r9}
    559c:	e1a02004 	mov	r2, r4
    55a0:	e1a03005 	mov	r3, r5
    55a4:	e1a00008 	mov	r0, r8
    55a8:	e1a01009 	mov	r1, r9
    55ac:	eb0000b2 	bl	587c <__adddf3>
    55b0:	e88d0003 	stm	sp, {r0, r1}
    55b4:	e1a02008 	mov	r2, r8
    55b8:	e1a03009 	mov	r3, r9
    55bc:	e89d0003 	ldm	sp, {r0, r1}
    55c0:	eb0000ac 	bl	5878 <__aeabi_dsub>
    55c4:	e1a07005 	mov	r7, r5
    55c8:	e1a06004 	mov	r6, r4
    55cc:	e1a02000 	mov	r2, r0
    55d0:	e1a03001 	mov	r3, r1
    55d4:	e1a00002 	mov	r0, r2
    55d8:	e1a01003 	mov	r1, r3
    55dc:	e28dd00c 	add	sp, sp, #12
    55e0:	e8bd43f0 	pop	{r4, r5, r6, r7, r8, r9, lr}
    55e4:	e12fff1e 	bx	lr
    55e8:	e35c0033 	cmp	r12, #51	; 0x33
    55ec:	da000005 	ble	5608 <rint+0xf4>
    55f0:	e35c0b01 	cmp	r12, #1024	; 0x400
    55f4:	1afffff6 	bne	55d4 <rint+0xc0>
    55f8:	eb00009f 	bl	587c <__adddf3>
    55fc:	e1a02000 	mov	r2, r0
    5600:	e1a03001 	mov	r3, r1
    5604:	eafffff2 	b	55d4 <rint+0xc0>
    5608:	e2477e41 	sub	r7, r7, #1040	; 0x410
    560c:	e2477003 	sub	r7, r7, #3
    5610:	e3e01000 	mvn	r1, #0
    5614:	e1a01731 	lsr	r1, r1, r7
    5618:	e1110000 	tst	r1, r0
    561c:	0affffec 	beq	55d4 <rint+0xc0>
    5620:	e1a010a1 	lsr	r1, r1, #1
    5624:	e1110000 	tst	r1, r0
    5628:	11c04001 	bicne	r4, r0, r1
    562c:	13a03101 	movne	r3, #1073741824	; 0x40000000
    5630:	11844753 	orrne	r4, r4, r3, asr r7
    5634:	eaffffd5 	b	5590 <rint+0x7c>
    5638:	e3c11102 	bic	r1, r1, #-2147483648	; 0x80000000
    563c:	e1911000 	orrs	r1, r1, r0
    5640:	0affffe3 	beq	55d4 <rint+0xc0>
    5644:	e3c314ff 	bic	r1, r3, #-16777216	; 0xff000000
    5648:	e3c1160f 	bic	r1, r1, #15728640	; 0xf00000
    564c:	e1814000 	orr	r4, r1, r0
    5650:	e59f0058 	ldr	r0, [pc, #88]	; 56b0 <rint+0x19c>
    5654:	e2641000 	rsb	r1, r4, #0
    5658:	e1814004 	orr	r4, r1, r4
    565c:	e0800188 	add	r0, r0, r8, lsl #3
    5660:	e1a01624 	lsr	r1, r4, #12
    5664:	e8900030 	ldm	r0, {r4, r5}
    5668:	e2011702 	and	r1, r1, #524288	; 0x80000
    566c:	e1a068a3 	lsr	r6, r3, #17
    5670:	e1813886 	orr	r3, r1, r6, lsl #17
    5674:	e1a00004 	mov	r0, r4
    5678:	e1a01005 	mov	r1, r5
    567c:	eb00007e 	bl	587c <__adddf3>
    5680:	e88d0003 	stm	sp, {r0, r1}
    5684:	e1a02004 	mov	r2, r4
    5688:	e1a03005 	mov	r3, r5
    568c:	e89d0003 	ldm	sp, {r0, r1}
    5690:	eb000078 	bl	5878 <__aeabi_dsub>
    5694:	e1a05001 	mov	r5, r1
    5698:	e3c11102 	bic	r1, r1, #-2147483648	; 0x80000000
    569c:	e1a04000 	mov	r4, r0
    56a0:	e1a02000 	mov	r2, r0
    56a4:	e1813f88 	orr	r3, r1, r8, lsl #31
    56a8:	eaffffc9 	b	55d4 <rint+0xc0>
    56ac:	000fffff 	.word	0x000fffff
    56b0:	00007990 	.word	0x00007990
    56b4:	00000000 	.word	0x00000000

000056b8 <scalbn>:
    56b8:	e59f3170 	ldr	r3, [pc, #368]	; 5830 <scalbn+0x178>
    56bc:	e0013003 	and	r3, r1, r3
    56c0:	e1b03a43 	asrs	r3, r3, #20
    56c4:	e92d41f0 	push	{r4, r5, r6, r7, r8, lr}
    56c8:	e1a04000 	mov	r4, r0
    56cc:	e1a05001 	mov	r5, r1
    56d0:	e1a06000 	mov	r6, r0
    56d4:	e1a07001 	mov	r7, r1
    56d8:	e1a08002 	mov	r8, r2
    56dc:	1a000011 	bne	5728 <scalbn+0x70>
    56e0:	e3c1c102 	bic	r12, r1, #-2147483648	; 0x80000000
    56e4:	e19cc000 	orrs	r12, r12, r0
    56e8:	0a00001d 	beq	5764 <scalbn+0xac>
    56ec:	e59f3140 	ldr	r3, [pc, #320]	; 5834 <scalbn+0x17c>
    56f0:	e3a02000 	mov	r2, #0
    56f4:	eb000164 	bl	5c8c <__aeabi_dmul>
    56f8:	e59f3138 	ldr	r3, [pc, #312]	; 5838 <scalbn+0x180>
    56fc:	e1580003 	cmp	r8, r3
    5700:	e1a04000 	mov	r4, r0
    5704:	e1a05001 	mov	r5, r1
    5708:	e1a06000 	mov	r6, r0
    570c:	e1a07001 	mov	r7, r1
    5710:	ba000021 	blt	579c <scalbn+0xe4>
    5714:	e59f3114 	ldr	r3, [pc, #276]	; 5830 <scalbn+0x178>
    5718:	e0013003 	and	r3, r1, r3
    571c:	e1a03a43 	asr	r3, r3, #20
    5720:	e2433036 	sub	r3, r3, #54	; 0x36
    5724:	ea000003 	b	5738 <scalbn+0x80>
    5728:	e59f210c 	ldr	r2, [pc, #268]	; 583c <scalbn+0x184>
    572c:	e1530002 	cmp	r3, r2
    5730:	11a01001 	movne	r1, r1
    5734:	0a000027 	beq	57d8 <scalbn+0x120>
    5738:	e59f2100 	ldr	r2, [pc, #256]	; 5840 <scalbn+0x188>
    573c:	e0833008 	add	r3, r3, r8
    5740:	e1530002 	cmp	r3, r2
    5744:	c1a02004 	movgt	r2, r4
    5748:	c1a03005 	movgt	r3, r5
    574c:	ca000018 	bgt	57b4 <scalbn+0xfc>
    5750:	e3530000 	cmp	r3, #0
    5754:	da000006 	ble	5774 <scalbn+0xbc>
    5758:	e3c1147f 	bic	r1, r1, #2130706432	; 0x7f000000
    575c:	e3c1160f 	bic	r1, r1, #15728640	; 0xf00000
    5760:	e1815a03 	orr	r5, r1, r3, lsl #20
    5764:	e1a00004 	mov	r0, r4
    5768:	e1a01005 	mov	r1, r5
    576c:	e8bd41f0 	pop	{r4, r5, r6, r7, r8, lr}
    5770:	e12fff1e 	bx	lr
    5774:	e3730035 	cmn	r3, #53	; 0x35
    5778:	aa00001c 	bge	57f0 <scalbn+0x138>
    577c:	e59f30c0 	ldr	r3, [pc, #192]	; 5844 <scalbn+0x18c>
    5780:	e1580003 	cmp	r8, r3
    5784:	e1a02004 	mov	r2, r4
    5788:	e1a03005 	mov	r3, r5
    578c:	ca000008 	bgt	57b4 <scalbn+0xfc>
    5790:	e28f1088 	add	r1, pc, #136	; 0x88
    5794:	e8910003 	ldm	r1, {r0, r1}
    5798:	eb00002c 	bl	5850 <copysign>
    579c:	e28f307c 	add	r3, pc, #124	; 0x7c
    57a0:	e893000c 	ldm	r3, {r2, r3}
    57a4:	eb000138 	bl	5c8c <__aeabi_dmul>
    57a8:	e1a04000 	mov	r4, r0
    57ac:	e1a05001 	mov	r5, r1
    57b0:	eaffffeb 	b	5764 <scalbn+0xac>
    57b4:	e28f106c 	add	r1, pc, #108	; 0x6c
    57b8:	e8910003 	ldm	r1, {r0, r1}
    57bc:	eb000023 	bl	5850 <copysign>
    57c0:	e28f3060 	add	r3, pc, #96	; 0x60
    57c4:	e893000c 	ldm	r3, {r2, r3}
    57c8:	eb00012f 	bl	5c8c <__aeabi_dmul>
    57cc:	e1a04000 	mov	r4, r0
    57d0:	e1a05001 	mov	r5, r1
    57d4:	eaffffe2 	b	5764 <scalbn+0xac>
    57d8:	e1a03005 	mov	r3, r5
    57dc:	e1a02000 	mov	r2, r0
    57e0:	eb000025 	bl	587c <__adddf3>
    57e4:	e1a04000 	mov	r4, r0
    57e8:	e1a05001 	mov	r5, r1
    57ec:	eaffffdc 	b	5764 <scalbn+0xac>
    57f0:	e3c1147f 	bic	r1, r1, #2130706432	; 0x7f000000
    57f4:	e2833036 	add	r3, r3, #54	; 0x36
    57f8:	e3c1160f 	bic	r1, r1, #15728640	; 0xf00000
    57fc:	e1815a03 	orr	r5, r1, r3, lsl #20
    5800:	e1a00004 	mov	r0, r4
    5804:	e1a01005 	mov	r1, r5
    5808:	e3a02000 	mov	r2, #0
    580c:	e59f3034 	ldr	r3, [pc, #52]	; 5848 <scalbn+0x190>
    5810:	eb00011d 	bl	5c8c <__aeabi_dmul>
    5814:	e1a04000 	mov	r4, r0
    5818:	e1a05001 	mov	r5, r1
    581c:	eaffffd0 	b	5764 <scalbn+0xac>
    5820:	c2f8f359 	.word	0xc2f8f359
    5824:	01a56e1f 	.word	0x01a56e1f
    5828:	8800759c 	.word	0x8800759c
    582c:	7e37e43c 	.word	0x7e37e43c
    5830:	7ff00000 	.word	0x7ff00000
    5834:	43500000 	.word	0x43500000
    5838:	ffff3cb0 	.word	0xffff3cb0
    583c:	000007ff 	.word	0x000007ff
    5840:	000007fe 	.word	0x000007fe
    5844:	0000c350 	.word	0x0000c350
    5848:	3c900000 	.word	0x3c900000
    584c:	e1a00000 	nop			; (mov r0, r0)

00005850 <copysign>:
    5850:	e2033102 	and	r3, r3, #-2147483648	; 0x80000000
    5854:	e3c12102 	bic	r2, r1, #-2147483648	; 0x80000000
    5858:	e92d0030 	push	{r4, r5}
    585c:	e1a05001 	mov	r5, r1
    5860:	e1a04000 	mov	r4, r0
    5864:	e1831002 	orr	r1, r3, r2
    5868:	e8bd0030 	pop	{r4, r5}
    586c:	e12fff1e 	bx	lr

00005870 <__aeabi_drsub>:
    5870:	e2211102 	eor	r1, r1, #-2147483648	; 0x80000000
    5874:	ea000000 	b	587c <__adddf3>

00005878 <__aeabi_dsub>:
    5878:	e2233102 	eor	r3, r3, #-2147483648	; 0x80000000

0000587c <__adddf3>:
    587c:	e92d4030 	push	{r4, r5, lr}
    5880:	e1a04081 	lsl	r4, r1, #1
    5884:	e1a05083 	lsl	r5, r3, #1
    5888:	e1340005 	teq	r4, r5
    588c:	01300002 	teqeq	r0, r2
    5890:	1194c000 	orrsne	r12, r4, r0
    5894:	1195c002 	orrsne	r12, r5, r2
    5898:	11f0cac4 	mvnsne	r12, r4, asr #21
    589c:	11f0cac5 	mvnsne	r12, r5, asr #21
    58a0:	0a00008c 	beq	5ad8 <__adddf3+0x25c>
    58a4:	e1a04aa4 	lsr	r4, r4, #21
    58a8:	e0745aa5 	rsbs	r5, r4, r5, lsr #21
    58ac:	b2655000 	rsblt	r5, r5, #0
    58b0:	da000006 	ble	58d0 <__adddf3+0x54>
    58b4:	e0844005 	add	r4, r4, r5
    58b8:	e0202002 	eor	r2, r0, r2
    58bc:	e0213003 	eor	r3, r1, r3
    58c0:	e0220000 	eor	r0, r2, r0
    58c4:	e0231001 	eor	r1, r3, r1
    58c8:	e0202002 	eor	r2, r0, r2
    58cc:	e0213003 	eor	r3, r1, r3
    58d0:	e3550036 	cmp	r5, #54	; 0x36
    58d4:	88bd4030 	pophi	{r4, r5, lr}
    58d8:	812fff1e 	bxhi	lr
    58dc:	e3110102 	tst	r1, #-2147483648	; 0x80000000
    58e0:	e1a01601 	lsl	r1, r1, #12
    58e4:	e3a0c601 	mov	r12, #1048576	; 0x100000
    58e8:	e18c1621 	orr	r1, r12, r1, lsr #12
    58ec:	0a000001 	beq	58f8 <__adddf3+0x7c>
    58f0:	e2700000 	rsbs	r0, r0, #0
    58f4:	e2e11000 	rsc	r1, r1, #0
    58f8:	e3130102 	tst	r3, #-2147483648	; 0x80000000
    58fc:	e1a03603 	lsl	r3, r3, #12
    5900:	e18c3623 	orr	r3, r12, r3, lsr #12
    5904:	0a000001 	beq	5910 <__adddf3+0x94>
    5908:	e2722000 	rsbs	r2, r2, #0
    590c:	e2e33000 	rsc	r3, r3, #0
    5910:	e1340005 	teq	r4, r5
    5914:	0a000069 	beq	5ac0 <__adddf3+0x244>
    5918:	e2444001 	sub	r4, r4, #1
    591c:	e275e020 	rsbs	lr, r5, #32
    5920:	ba000005 	blt	593c <__adddf3+0xc0>
    5924:	e1a0ce12 	lsl	r12, r2, lr
    5928:	e0900532 	adds	r0, r0, r2, lsr r5
    592c:	e2a11000 	adc	r1, r1, #0
    5930:	e0900e13 	adds	r0, r0, r3, lsl lr
    5934:	e0b11553 	adcs	r1, r1, r3, asr r5
    5938:	ea000006 	b	5958 <__adddf3+0xdc>
    593c:	e2455020 	sub	r5, r5, #32
    5940:	e28ee020 	add	lr, lr, #32
    5944:	e3520001 	cmp	r2, #1
    5948:	e1a0ce13 	lsl	r12, r3, lr
    594c:	238cc002 	orrcs	r12, r12, #2
    5950:	e0900553 	adds	r0, r0, r3, asr r5
    5954:	e0b11fc3 	adcs	r1, r1, r3, asr #31
    5958:	e2015102 	and	r5, r1, #-2147483648	; 0x80000000
    595c:	5a000002 	bpl	596c <__adddf3+0xf0>
    5960:	e27cc000 	rsbs	r12, r12, #0
    5964:	e2f00000 	rscs	r0, r0, #0
    5968:	e2e11000 	rsc	r1, r1, #0
    596c:	e3510601 	cmp	r1, #1048576	; 0x100000
    5970:	3a00000f 	bcc	59b4 <__adddf3+0x138>
    5974:	e3510602 	cmp	r1, #2097152	; 0x200000
    5978:	3a000006 	bcc	5998 <__adddf3+0x11c>
    597c:	e1b010a1 	lsrs	r1, r1, #1
    5980:	e1b00060 	rrxs	r0, r0
    5984:	e1a0c06c 	rrx	r12, r12
    5988:	e2844001 	add	r4, r4, #1
    598c:	e1a02a84 	lsl	r2, r4, #21
    5990:	e3720501 	cmn	r2, #4194304	; 0x400000
    5994:	2a00006b 	bcs	5b48 <__adddf3+0x2cc>
    5998:	e35c0102 	cmp	r12, #-2147483648	; 0x80000000
    599c:	01b0c0a0 	lsrseq	r12, r0, #1
    59a0:	e2b00000 	adcs	r0, r0, #0
    59a4:	e0a11a04 	adc	r1, r1, r4, lsl #20
    59a8:	e1811005 	orr	r1, r1, r5
    59ac:	e8bd4030 	pop	{r4, r5, lr}
    59b0:	e12fff1e 	bx	lr
    59b4:	e1b0c08c 	lsls	r12, r12, #1
    59b8:	e0b00000 	adcs	r0, r0, r0
    59bc:	e0a11001 	adc	r1, r1, r1
    59c0:	e3110601 	tst	r1, #1048576	; 0x100000
    59c4:	e2444001 	sub	r4, r4, #1
    59c8:	1afffff2 	bne	5998 <__adddf3+0x11c>
    59cc:	e3310000 	teq	r1, #0
    59d0:	13a03014 	movne	r3, #20
    59d4:	03a03034 	moveq	r3, #52	; 0x34
    59d8:	01a01000 	moveq	r1, r0
    59dc:	03a00000 	moveq	r0, #0
    59e0:	e1a02001 	mov	r2, r1
    59e4:	e3520801 	cmp	r2, #65536	; 0x10000
    59e8:	21a02822 	lsrcs	r2, r2, #16
    59ec:	22433010 	subcs	r3, r3, #16
    59f0:	e3520c01 	cmp	r2, #256	; 0x100
    59f4:	21a02422 	lsrcs	r2, r2, #8
    59f8:	22433008 	subcs	r3, r3, #8
    59fc:	e3520010 	cmp	r2, #16
    5a00:	21a02222 	lsrcs	r2, r2, #4
    5a04:	22433004 	subcs	r3, r3, #4
    5a08:	e3520004 	cmp	r2, #4
    5a0c:	22433002 	subcs	r3, r3, #2
    5a10:	304330a2 	subcc	r3, r3, r2, lsr #1
    5a14:	e04331a2 	sub	r3, r3, r2, lsr #3
    5a18:	e2532020 	subs	r2, r3, #32
    5a1c:	aa000007 	bge	5a40 <__adddf3+0x1c4>
    5a20:	e292200c 	adds	r2, r2, #12
    5a24:	da000004 	ble	5a3c <__adddf3+0x1c0>
    5a28:	e282c014 	add	r12, r2, #20
    5a2c:	e262200c 	rsb	r2, r2, #12
    5a30:	e1a00c11 	lsl	r0, r1, r12
    5a34:	e1a01231 	lsr	r1, r1, r2
    5a38:	ea000004 	b	5a50 <__adddf3+0x1d4>
    5a3c:	e2822014 	add	r2, r2, #20
    5a40:	d262c020 	rsble	r12, r2, #32
    5a44:	e1a01211 	lsl	r1, r1, r2
    5a48:	d1811c30 	orrle	r1, r1, r0, lsr r12
    5a4c:	d1a00210 	lslle	r0, r0, r2
    5a50:	e0544003 	subs	r4, r4, r3
    5a54:	a0811a04 	addge	r1, r1, r4, lsl #20
    5a58:	a1811005 	orrge	r1, r1, r5
    5a5c:	a8bd4030 	popge	{r4, r5, lr}
    5a60:	a12fff1e 	bxge	lr
    5a64:	e1e04004 	mvn	r4, r4
    5a68:	e254401f 	subs	r4, r4, #31
    5a6c:	aa00000f 	bge	5ab0 <__adddf3+0x234>
    5a70:	e294400c 	adds	r4, r4, #12
    5a74:	ca000006 	bgt	5a94 <__adddf3+0x218>
    5a78:	e2844014 	add	r4, r4, #20
    5a7c:	e2642020 	rsb	r2, r4, #32
    5a80:	e1a00430 	lsr	r0, r0, r4
    5a84:	e1800211 	orr	r0, r0, r1, lsl r2
    5a88:	e1851431 	orr	r1, r5, r1, lsr r4
    5a8c:	e8bd4030 	pop	{r4, r5, lr}
    5a90:	e12fff1e 	bx	lr
    5a94:	e264400c 	rsb	r4, r4, #12
    5a98:	e2642020 	rsb	r2, r4, #32
    5a9c:	e1a00230 	lsr	r0, r0, r2
    5aa0:	e1800411 	orr	r0, r0, r1, lsl r4
    5aa4:	e1a01005 	mov	r1, r5
    5aa8:	e8bd4030 	pop	{r4, r5, lr}
    5aac:	e12fff1e 	bx	lr
    5ab0:	e1a00431 	lsr	r0, r1, r4
    5ab4:	e1a01005 	mov	r1, r5
    5ab8:	e8bd4030 	pop	{r4, r5, lr}
    5abc:	e12fff1e 	bx	lr
    5ac0:	e3340000 	teq	r4, #0
    5ac4:	e2233601 	eor	r3, r3, #1048576	; 0x100000
    5ac8:	02211601 	eoreq	r1, r1, #1048576	; 0x100000
    5acc:	02844001 	addeq	r4, r4, #1
    5ad0:	12455001 	subne	r5, r5, #1
    5ad4:	eaffff8f 	b	5918 <__adddf3+0x9c>
    5ad8:	e1f0cac4 	mvns	r12, r4, asr #21
    5adc:	11f0cac5 	mvnsne	r12, r5, asr #21
    5ae0:	0a00001d 	beq	5b5c <__adddf3+0x2e0>
    5ae4:	e1340005 	teq	r4, r5
    5ae8:	01300002 	teqeq	r0, r2
    5aec:	0a000004 	beq	5b04 <__adddf3+0x288>
    5af0:	e194c000 	orrs	r12, r4, r0
    5af4:	01a01003 	moveq	r1, r3
    5af8:	01a00002 	moveq	r0, r2
    5afc:	e8bd4030 	pop	{r4, r5, lr}
    5b00:	e12fff1e 	bx	lr
    5b04:	e1310003 	teq	r1, r3
    5b08:	13a01000 	movne	r1, #0
    5b0c:	13a00000 	movne	r0, #0
    5b10:	18bd4030 	popne	{r4, r5, lr}
    5b14:	112fff1e 	bxne	lr
    5b18:	e1b0caa4 	lsrs	r12, r4, #21
    5b1c:	1a000004 	bne	5b34 <__adddf3+0x2b8>
    5b20:	e1b00080 	lsls	r0, r0, #1
    5b24:	e0b11001 	adcs	r1, r1, r1
    5b28:	23811102 	orrcs	r1, r1, #-2147483648	; 0x80000000
    5b2c:	e8bd4030 	pop	{r4, r5, lr}
    5b30:	e12fff1e 	bx	lr
    5b34:	e2944501 	adds	r4, r4, #4194304	; 0x400000
    5b38:	32811601 	addcc	r1, r1, #1048576	; 0x100000
    5b3c:	38bd4030 	popcc	{r4, r5, lr}
    5b40:	312fff1e 	bxcc	lr
    5b44:	e2015102 	and	r5, r1, #-2147483648	; 0x80000000
    5b48:	e385147f 	orr	r1, r5, #2130706432	; 0x7f000000
    5b4c:	e381160f 	orr	r1, r1, #15728640	; 0xf00000
    5b50:	e3a00000 	mov	r0, #0
    5b54:	e8bd4030 	pop	{r4, r5, lr}
    5b58:	e12fff1e 	bx	lr
    5b5c:	e1f0cac4 	mvns	r12, r4, asr #21
    5b60:	11a01003 	movne	r1, r3
    5b64:	11a00002 	movne	r0, r2
    5b68:	01f0cac5 	mvnseq	r12, r5, asr #21
    5b6c:	11a03001 	movne	r3, r1
    5b70:	11a02000 	movne	r2, r0
    5b74:	e1904601 	orrs	r4, r0, r1, lsl #12
    5b78:	01925603 	orrseq	r5, r2, r3, lsl #12
    5b7c:	01310003 	teqeq	r1, r3
    5b80:	13811702 	orrne	r1, r1, #524288	; 0x80000
    5b84:	e8bd4030 	pop	{r4, r5, lr}
    5b88:	e12fff1e 	bx	lr

00005b8c <__aeabi_ui2d>:
    5b8c:	e3300000 	teq	r0, #0
    5b90:	03a01000 	moveq	r1, #0
    5b94:	012fff1e 	bxeq	lr
    5b98:	e92d4030 	push	{r4, r5, lr}
    5b9c:	e3a04b01 	mov	r4, #1024	; 0x400
    5ba0:	e2844032 	add	r4, r4, #50	; 0x32
    5ba4:	e3a05000 	mov	r5, #0
    5ba8:	e3a01000 	mov	r1, #0
    5bac:	eaffff86 	b	59cc <__adddf3+0x150>

00005bb0 <__aeabi_i2d>:
    5bb0:	e3300000 	teq	r0, #0
    5bb4:	03a01000 	moveq	r1, #0
    5bb8:	012fff1e 	bxeq	lr
    5bbc:	e92d4030 	push	{r4, r5, lr}
    5bc0:	e3a04b01 	mov	r4, #1024	; 0x400
    5bc4:	e2844032 	add	r4, r4, #50	; 0x32
    5bc8:	e2105102 	ands	r5, r0, #-2147483648	; 0x80000000
    5bcc:	42600000 	rsbmi	r0, r0, #0
    5bd0:	e3a01000 	mov	r1, #0
    5bd4:	eaffff7c 	b	59cc <__adddf3+0x150>

00005bd8 <__aeabi_f2d>:
    5bd8:	e1b02080 	lsls	r2, r0, #1
    5bdc:	e1a011c2 	asr	r1, r2, #3
    5be0:	e1a01061 	rrx	r1, r1
    5be4:	e1a00e02 	lsl	r0, r2, #28
    5be8:	121234ff 	andsne	r3, r2, #-16777216	; 0xff000000
    5bec:	133304ff 	teqne	r3, #-16777216	; 0xff000000
    5bf0:	1221130e 	eorne	r1, r1, #939524096	; 0x38000000
    5bf4:	112fff1e 	bxne	lr
    5bf8:	e3320000 	teq	r2, #0
    5bfc:	133304ff 	teqne	r3, #-16777216	; 0xff000000
    5c00:	012fff1e 	bxeq	lr
    5c04:	e92d4030 	push	{r4, r5, lr}
    5c08:	e3a04d0e 	mov	r4, #896	; 0x380
    5c0c:	e2015102 	and	r5, r1, #-2147483648	; 0x80000000
    5c10:	e3c11102 	bic	r1, r1, #-2147483648	; 0x80000000
    5c14:	eaffff6c 	b	59cc <__adddf3+0x150>

00005c18 <__aeabi_ul2d>:
    5c18:	e1902001 	orrs	r2, r0, r1
    5c1c:	012fff1e 	bxeq	lr
    5c20:	e92d4030 	push	{r4, r5, lr}
    5c24:	e3a05000 	mov	r5, #0
    5c28:	ea000006 	b	5c48 <__aeabi_l2d+0x1c>

00005c2c <__aeabi_l2d>:
    5c2c:	e1902001 	orrs	r2, r0, r1
    5c30:	012fff1e 	bxeq	lr
    5c34:	e92d4030 	push	{r4, r5, lr}
    5c38:	e2115102 	ands	r5, r1, #-2147483648	; 0x80000000
    5c3c:	5a000001 	bpl	5c48 <__aeabi_l2d+0x1c>
    5c40:	e2700000 	rsbs	r0, r0, #0
    5c44:	e2e11000 	rsc	r1, r1, #0
    5c48:	e3a04b01 	mov	r4, #1024	; 0x400
    5c4c:	e2844032 	add	r4, r4, #50	; 0x32
    5c50:	e1b0cb21 	lsrs	r12, r1, #22
    5c54:	0affff44 	beq	596c <__adddf3+0xf0>
    5c58:	e3a02003 	mov	r2, #3
    5c5c:	e1b0c1ac 	lsrs	r12, r12, #3
    5c60:	12822003 	addne	r2, r2, #3
    5c64:	e1b0c1ac 	lsrs	r12, r12, #3
    5c68:	12822003 	addne	r2, r2, #3
    5c6c:	e08221ac 	add	r2, r2, r12, lsr #3
    5c70:	e2623020 	rsb	r3, r2, #32
    5c74:	e1a0c310 	lsl	r12, r0, r3
    5c78:	e1a00230 	lsr	r0, r0, r2
    5c7c:	e1800311 	orr	r0, r0, r1, lsl r3
    5c80:	e1a01231 	lsr	r1, r1, r2
    5c84:	e0844002 	add	r4, r4, r2
    5c88:	eaffff37 	b	596c <__adddf3+0xf0>

00005c8c <__aeabi_dmul>:
    5c8c:	e92d4070 	push	{r4, r5, r6, lr}
    5c90:	e3a0c0ff 	mov	r12, #255	; 0xff
    5c94:	e38ccc07 	orr	r12, r12, #1792	; 0x700
    5c98:	e01c4a21 	ands	r4, r12, r1, lsr #20
    5c9c:	101c5a23 	andsne	r5, r12, r3, lsr #20
    5ca0:	1134000c 	teqne	r4, r12
    5ca4:	1135000c 	teqne	r5, r12
    5ca8:	0b000075 	bleq	5e84 <__aeabi_dmul+0x1f8>
    5cac:	e0844005 	add	r4, r4, r5
    5cb0:	e0216003 	eor	r6, r1, r3
    5cb4:	e1c11a8c 	bic	r1, r1, r12, lsl #21
    5cb8:	e1c33a8c 	bic	r3, r3, r12, lsl #21
    5cbc:	e1905601 	orrs	r5, r0, r1, lsl #12
    5cc0:	11925603 	orrsne	r5, r2, r3, lsl #12
    5cc4:	e3811601 	orr	r1, r1, #1048576	; 0x100000
    5cc8:	e3833601 	orr	r3, r3, #1048576	; 0x100000
    5ccc:	0a00001d 	beq	5d48 <__aeabi_dmul+0xbc>
    5cd0:	e08ec290 	umull	r12, lr, r0, r2
    5cd4:	e3a05000 	mov	r5, #0
    5cd8:	e0a5e291 	umlal	lr, r5, r1, r2
    5cdc:	e2062102 	and	r2, r6, #-2147483648	; 0x80000000
    5ce0:	e0a5e390 	umlal	lr, r5, r0, r3
    5ce4:	e3a06000 	mov	r6, #0
    5ce8:	e0a65391 	umlal	r5, r6, r1, r3
    5cec:	e33c0000 	teq	r12, #0
    5cf0:	138ee001 	orrne	lr, lr, #1
    5cf4:	e24440ff 	sub	r4, r4, #255	; 0xff
    5cf8:	e3560c02 	cmp	r6, #512	; 0x200
    5cfc:	e2c44c03 	sbc	r4, r4, #768	; 0x300
    5d00:	2a000002 	bcs	5d10 <__aeabi_dmul+0x84>
    5d04:	e1b0e08e 	lsls	lr, lr, #1
    5d08:	e0b55005 	adcs	r5, r5, r5
    5d0c:	e0a66006 	adc	r6, r6, r6
    5d10:	e1821586 	orr	r1, r2, r6, lsl #11
    5d14:	e1811aa5 	orr	r1, r1, r5, lsr #21
    5d18:	e1a00585 	lsl	r0, r5, #11
    5d1c:	e1800aae 	orr	r0, r0, lr, lsr #21
    5d20:	e1a0e58e 	lsl	lr, lr, #11
    5d24:	e254c0fd 	subs	r12, r4, #253	; 0xfd
    5d28:	835c0c07 	cmphi	r12, #1792	; 0x700
    5d2c:	8a000011 	bhi	5d78 <__aeabi_dmul+0xec>
    5d30:	e35e0102 	cmp	lr, #-2147483648	; 0x80000000
    5d34:	01b0e0a0 	lsrseq	lr, r0, #1
    5d38:	e2b00000 	adcs	r0, r0, #0
    5d3c:	e0a11a04 	adc	r1, r1, r4, lsl #20
    5d40:	e8bd4070 	pop	{r4, r5, r6, lr}
    5d44:	e12fff1e 	bx	lr
    5d48:	e2066102 	and	r6, r6, #-2147483648	; 0x80000000
    5d4c:	e1861001 	orr	r1, r6, r1
    5d50:	e1800002 	orr	r0, r0, r2
    5d54:	e0211003 	eor	r1, r1, r3
    5d58:	e05440ac 	subs	r4, r4, r12, lsr #1
    5d5c:	c074500c 	rsbsgt	r5, r4, r12
    5d60:	c1811a04 	orrgt	r1, r1, r4, lsl #20
    5d64:	c8bd4070 	popgt	{r4, r5, r6, lr}
    5d68:	c12fff1e 	bxgt	lr
    5d6c:	e3811601 	orr	r1, r1, #1048576	; 0x100000
    5d70:	e3a0e000 	mov	lr, #0
    5d74:	e2544001 	subs	r4, r4, #1
    5d78:	ca00005d 	bgt	5ef4 <__aeabi_dmul+0x268>
    5d7c:	e3740036 	cmn	r4, #54	; 0x36
    5d80:	d3a00000 	movle	r0, #0
    5d84:	d2011102 	andle	r1, r1, #-2147483648	; 0x80000000
    5d88:	d8bd4070 	pople	{r4, r5, r6, lr}
    5d8c:	d12fff1e 	bxle	lr
    5d90:	e2644000 	rsb	r4, r4, #0
    5d94:	e2544020 	subs	r4, r4, #32
    5d98:	aa00001a 	bge	5e08 <__aeabi_dmul+0x17c>
    5d9c:	e294400c 	adds	r4, r4, #12
    5da0:	ca00000c 	bgt	5dd8 <__aeabi_dmul+0x14c>
    5da4:	e2844014 	add	r4, r4, #20
    5da8:	e2645020 	rsb	r5, r4, #32
    5dac:	e1a03510 	lsl	r3, r0, r5
    5db0:	e1a00430 	lsr	r0, r0, r4
    5db4:	e1800511 	orr	r0, r0, r1, lsl r5
    5db8:	e2012102 	and	r2, r1, #-2147483648	; 0x80000000
    5dbc:	e3c11102 	bic	r1, r1, #-2147483648	; 0x80000000
    5dc0:	e0900fa3 	adds	r0, r0, r3, lsr #31
    5dc4:	e0a21431 	adc	r1, r2, r1, lsr r4
    5dc8:	e19ee083 	orrs	lr, lr, r3, lsl #1
    5dcc:	01c00fa3 	biceq	r0, r0, r3, lsr #31
    5dd0:	e8bd4070 	pop	{r4, r5, r6, lr}
    5dd4:	e12fff1e 	bx	lr
    5dd8:	e264400c 	rsb	r4, r4, #12
    5ddc:	e2645020 	rsb	r5, r4, #32
    5de0:	e1a03410 	lsl	r3, r0, r4
    5de4:	e1a00530 	lsr	r0, r0, r5
    5de8:	e1800411 	orr	r0, r0, r1, lsl r4
    5dec:	e2011102 	and	r1, r1, #-2147483648	; 0x80000000
    5df0:	e0900fa3 	adds	r0, r0, r3, lsr #31
    5df4:	e2a11000 	adc	r1, r1, #0
    5df8:	e19ee083 	orrs	lr, lr, r3, lsl #1
    5dfc:	01c00fa3 	biceq	r0, r0, r3, lsr #31
    5e00:	e8bd4070 	pop	{r4, r5, r6, lr}
    5e04:	e12fff1e 	bx	lr
    5e08:	e2645020 	rsb	r5, r4, #32
    5e0c:	e18ee510 	orr	lr, lr, r0, lsl r5
    5e10:	e1a03430 	lsr	r3, r0, r4
    5e14:	e1833511 	orr	r3, r3, r1, lsl r5
    5e18:	e1a00431 	lsr	r0, r1, r4
    5e1c:	e2011102 	and	r1, r1, #-2147483648	; 0x80000000
    5e20:	e1c00431 	bic	r0, r0, r1, lsr r4
    5e24:	e0800fa3 	add	r0, r0, r3, lsr #31
    5e28:	e19ee083 	orrs	lr, lr, r3, lsl #1
    5e2c:	01c00fa3 	biceq	r0, r0, r3, lsr #31
    5e30:	e8bd4070 	pop	{r4, r5, r6, lr}
    5e34:	e12fff1e 	bx	lr
    5e38:	e3340000 	teq	r4, #0
    5e3c:	1a000008 	bne	5e64 <__aeabi_dmul+0x1d8>
    5e40:	e2016102 	and	r6, r1, #-2147483648	; 0x80000000
    5e44:	e1b00080 	lsls	r0, r0, #1
    5e48:	e0a11001 	adc	r1, r1, r1
    5e4c:	e3110601 	tst	r1, #1048576	; 0x100000
    5e50:	02444001 	subeq	r4, r4, #1
    5e54:	0afffffa 	beq	5e44 <__aeabi_dmul+0x1b8>
    5e58:	e1811006 	orr	r1, r1, r6
    5e5c:	e3350000 	teq	r5, #0
    5e60:	112fff1e 	bxne	lr
    5e64:	e2036102 	and	r6, r3, #-2147483648	; 0x80000000
    5e68:	e1b02082 	lsls	r2, r2, #1
    5e6c:	e0a33003 	adc	r3, r3, r3
    5e70:	e3130601 	tst	r3, #1048576	; 0x100000
    5e74:	02455001 	subeq	r5, r5, #1
    5e78:	0afffffa 	beq	5e68 <__aeabi_dmul+0x1dc>
    5e7c:	e1833006 	orr	r3, r3, r6
    5e80:	e12fff1e 	bx	lr
    5e84:	e134000c 	teq	r4, r12
    5e88:	e00c5a23 	and	r5, r12, r3, lsr #20
    5e8c:	1135000c 	teqne	r5, r12
    5e90:	0a000007 	beq	5eb4 <__aeabi_dmul+0x228>
    5e94:	e1906081 	orrs	r6, r0, r1, lsl #1
    5e98:	11926083 	orrsne	r6, r2, r3, lsl #1
    5e9c:	1affffe5 	bne	5e38 <__aeabi_dmul+0x1ac>
    5ea0:	e0211003 	eor	r1, r1, r3
    5ea4:	e2011102 	and	r1, r1, #-2147483648	; 0x80000000
    5ea8:	e3a00000 	mov	r0, #0
    5eac:	e8bd4070 	pop	{r4, r5, r6, lr}
    5eb0:	e12fff1e 	bx	lr
    5eb4:	e1906081 	orrs	r6, r0, r1, lsl #1
    5eb8:	01a00002 	moveq	r0, r2
    5ebc:	01a01003 	moveq	r1, r3
    5ec0:	11926083 	orrsne	r6, r2, r3, lsl #1
    5ec4:	0a000010 	beq	5f0c <__aeabi_dmul+0x280>
    5ec8:	e134000c 	teq	r4, r12
    5ecc:	1a000001 	bne	5ed8 <__aeabi_dmul+0x24c>
    5ed0:	e1906601 	orrs	r6, r0, r1, lsl #12
    5ed4:	1a00000c 	bne	5f0c <__aeabi_dmul+0x280>
    5ed8:	e135000c 	teq	r5, r12
    5edc:	1a000003 	bne	5ef0 <__aeabi_dmul+0x264>
    5ee0:	e1926603 	orrs	r6, r2, r3, lsl #12
    5ee4:	11a00002 	movne	r0, r2
    5ee8:	11a01003 	movne	r1, r3
    5eec:	1a000006 	bne	5f0c <__aeabi_dmul+0x280>
    5ef0:	e0211003 	eor	r1, r1, r3
    5ef4:	e2011102 	and	r1, r1, #-2147483648	; 0x80000000
    5ef8:	e381147f 	orr	r1, r1, #2130706432	; 0x7f000000
    5efc:	e381160f 	orr	r1, r1, #15728640	; 0xf00000
    5f00:	e3a00000 	mov	r0, #0
    5f04:	e8bd4070 	pop	{r4, r5, r6, lr}
    5f08:	e12fff1e 	bx	lr
    5f0c:	e381147f 	orr	r1, r1, #2130706432	; 0x7f000000
    5f10:	e381173e 	orr	r1, r1, #16252928	; 0xf80000
    5f14:	e8bd4070 	pop	{r4, r5, r6, lr}
    5f18:	e12fff1e 	bx	lr

00005f1c <__aeabi_ddiv>:
    5f1c:	e92d4070 	push	{r4, r5, r6, lr}
    5f20:	e3a0c0ff 	mov	r12, #255	; 0xff
    5f24:	e38ccc07 	orr	r12, r12, #1792	; 0x700
    5f28:	e01c4a21 	ands	r4, r12, r1, lsr #20
    5f2c:	101c5a23 	andsne	r5, r12, r3, lsr #20
    5f30:	1134000c 	teqne	r4, r12
    5f34:	1135000c 	teqne	r5, r12
    5f38:	0b00005e 	bleq	60b8 <__aeabi_ddiv+0x19c>
    5f3c:	e0444005 	sub	r4, r4, r5
    5f40:	e021e003 	eor	lr, r1, r3
    5f44:	e1925603 	orrs	r5, r2, r3, lsl #12
    5f48:	e1a01601 	lsl	r1, r1, #12
    5f4c:	0a00004c 	beq	6084 <__aeabi_ddiv+0x168>
    5f50:	e1a03603 	lsl	r3, r3, #12
    5f54:	e3a05201 	mov	r5, #268435456	; 0x10000000
    5f58:	e1853223 	orr	r3, r5, r3, lsr #4
    5f5c:	e1833c22 	orr	r3, r3, r2, lsr #24
    5f60:	e1a02402 	lsl	r2, r2, #8
    5f64:	e1855221 	orr	r5, r5, r1, lsr #4
    5f68:	e1855c20 	orr	r5, r5, r0, lsr #24
    5f6c:	e1a06400 	lsl	r6, r0, #8
    5f70:	e20e1102 	and	r1, lr, #-2147483648	; 0x80000000
    5f74:	e1550003 	cmp	r5, r3
    5f78:	01560002 	cmpeq	r6, r2
    5f7c:	e2a440fd 	adc	r4, r4, #253	; 0xfd
    5f80:	e2844c03 	add	r4, r4, #768	; 0x300
    5f84:	2a000001 	bcs	5f90 <__aeabi_ddiv+0x74>
    5f88:	e1b030a3 	lsrs	r3, r3, #1
    5f8c:	e1a02062 	rrx	r2, r2
    5f90:	e0566002 	subs	r6, r6, r2
    5f94:	e0c55003 	sbc	r5, r5, r3
    5f98:	e1b030a3 	lsrs	r3, r3, #1
    5f9c:	e1a02062 	rrx	r2, r2
    5fa0:	e3a00601 	mov	r0, #1048576	; 0x100000
    5fa4:	e3a0c702 	mov	r12, #524288	; 0x80000
    5fa8:	e056e002 	subs	lr, r6, r2
    5fac:	e0d5e003 	sbcs	lr, r5, r3
    5fb0:	20466002 	subcs	r6, r6, r2
    5fb4:	21a0500e 	movcs	r5, lr
    5fb8:	2180000c 	orrcs	r0, r0, r12
    5fbc:	e1b030a3 	lsrs	r3, r3, #1
    5fc0:	e1a02062 	rrx	r2, r2
    5fc4:	e056e002 	subs	lr, r6, r2
    5fc8:	e0d5e003 	sbcs	lr, r5, r3
    5fcc:	20466002 	subcs	r6, r6, r2
    5fd0:	21a0500e 	movcs	r5, lr
    5fd4:	218000ac 	orrcs	r0, r0, r12, lsr #1
    5fd8:	e1b030a3 	lsrs	r3, r3, #1
    5fdc:	e1a02062 	rrx	r2, r2
    5fe0:	e056e002 	subs	lr, r6, r2
    5fe4:	e0d5e003 	sbcs	lr, r5, r3
    5fe8:	20466002 	subcs	r6, r6, r2
    5fec:	21a0500e 	movcs	r5, lr
    5ff0:	2180012c 	orrcs	r0, r0, r12, lsr #2
    5ff4:	e1b030a3 	lsrs	r3, r3, #1
    5ff8:	e1a02062 	rrx	r2, r2
    5ffc:	e056e002 	subs	lr, r6, r2
    6000:	e0d5e003 	sbcs	lr, r5, r3
    6004:	20466002 	subcs	r6, r6, r2
    6008:	21a0500e 	movcs	r5, lr
    600c:	218001ac 	orrcs	r0, r0, r12, lsr #3
    6010:	e195e006 	orrs	lr, r5, r6
    6014:	0a00000d 	beq	6050 <__aeabi_ddiv+0x134>
    6018:	e1a05205 	lsl	r5, r5, #4
    601c:	e1855e26 	orr	r5, r5, r6, lsr #28
    6020:	e1a06206 	lsl	r6, r6, #4
    6024:	e1a03183 	lsl	r3, r3, #3
    6028:	e1833ea2 	orr	r3, r3, r2, lsr #29
    602c:	e1a02182 	lsl	r2, r2, #3
    6030:	e1b0c22c 	lsrs	r12, r12, #4
    6034:	1affffdb 	bne	5fa8 <__aeabi_ddiv+0x8c>
    6038:	e3110601 	tst	r1, #1048576	; 0x100000
    603c:	1a000006 	bne	605c <__aeabi_ddiv+0x140>
    6040:	e1811000 	orr	r1, r1, r0
    6044:	e3a00000 	mov	r0, #0
    6048:	e3a0c102 	mov	r12, #-2147483648	; 0x80000000
    604c:	eaffffd5 	b	5fa8 <__aeabi_ddiv+0x8c>
    6050:	e3110601 	tst	r1, #1048576	; 0x100000
    6054:	01811000 	orreq	r1, r1, r0
    6058:	03a00000 	moveq	r0, #0
    605c:	e254c0fd 	subs	r12, r4, #253	; 0xfd
    6060:	835c0c07 	cmphi	r12, #1792	; 0x700
    6064:	8affff43 	bhi	5d78 <__aeabi_dmul+0xec>
    6068:	e055c003 	subs	r12, r5, r3
    606c:	0056c002 	subseq	r12, r6, r2
    6070:	01b0c0a0 	lsrseq	r12, r0, #1
    6074:	e2b00000 	adcs	r0, r0, #0
    6078:	e0a11a04 	adc	r1, r1, r4, lsl #20
    607c:	e8bd4070 	pop	{r4, r5, r6, lr}
    6080:	e12fff1e 	bx	lr
    6084:	e20ee102 	and	lr, lr, #-2147483648	; 0x80000000
    6088:	e18e1621 	orr	r1, lr, r1, lsr #12
    608c:	e09440ac 	adds	r4, r4, r12, lsr #1
    6090:	c074500c 	rsbsgt	r5, r4, r12
    6094:	c1811a04 	orrgt	r1, r1, r4, lsl #20
    6098:	c8bd4070 	popgt	{r4, r5, r6, lr}
    609c:	c12fff1e 	bxgt	lr
    60a0:	e3811601 	orr	r1, r1, #1048576	; 0x100000
    60a4:	e3a0e000 	mov	lr, #0
    60a8:	e2544001 	subs	r4, r4, #1
    60ac:	eaffff31 	b	5d78 <__aeabi_dmul+0xec>
    60b0:	e185e006 	orr	lr, r5, r6
    60b4:	eaffff2f 	b	5d78 <__aeabi_dmul+0xec>
    60b8:	e00c5a23 	and	r5, r12, r3, lsr #20
    60bc:	e134000c 	teq	r4, r12
    60c0:	0135000c 	teqeq	r5, r12
    60c4:	0affff90 	beq	5f0c <__aeabi_dmul+0x280>
    60c8:	e134000c 	teq	r4, r12
    60cc:	1a000006 	bne	60ec <__aeabi_ddiv+0x1d0>
    60d0:	e1904601 	orrs	r4, r0, r1, lsl #12
    60d4:	1affff8c 	bne	5f0c <__aeabi_dmul+0x280>
    60d8:	e135000c 	teq	r5, r12
    60dc:	1affff83 	bne	5ef0 <__aeabi_dmul+0x264>
    60e0:	e1a00002 	mov	r0, r2
    60e4:	e1a01003 	mov	r1, r3
    60e8:	eaffff87 	b	5f0c <__aeabi_dmul+0x280>
    60ec:	e135000c 	teq	r5, r12
    60f0:	1a000004 	bne	6108 <__aeabi_ddiv+0x1ec>
    60f4:	e1925603 	orrs	r5, r2, r3, lsl #12
    60f8:	0affff68 	beq	5ea0 <__aeabi_dmul+0x214>
    60fc:	e1a00002 	mov	r0, r2
    6100:	e1a01003 	mov	r1, r3
    6104:	eaffff80 	b	5f0c <__aeabi_dmul+0x280>
    6108:	e1906081 	orrs	r6, r0, r1, lsl #1
    610c:	11926083 	orrsne	r6, r2, r3, lsl #1
    6110:	1affff48 	bne	5e38 <__aeabi_dmul+0x1ac>
    6114:	e1904081 	orrs	r4, r0, r1, lsl #1
    6118:	1affff74 	bne	5ef0 <__aeabi_dmul+0x264>
    611c:	e1925083 	orrs	r5, r2, r3, lsl #1
    6120:	1affff5e 	bne	5ea0 <__aeabi_dmul+0x214>
    6124:	eaffff78 	b	5f0c <__aeabi_dmul+0x280>

00006128 <__gedf2>:
    6128:	e3e0c000 	mvn	r12, #0
    612c:	ea000002 	b	613c <__cmpdf2+0x4>

00006130 <__ledf2>:
    6130:	e3a0c001 	mov	r12, #1
    6134:	ea000000 	b	613c <__cmpdf2+0x4>

00006138 <__cmpdf2>:
    6138:	e3a0c001 	mov	r12, #1
    613c:	e52dc004 	push	{r12}		; (str r12, [sp, #-4]!)
    6140:	e1a0c081 	lsl	r12, r1, #1
    6144:	e1f0cacc 	mvns	r12, r12, asr #21
    6148:	e1a0c083 	lsl	r12, r3, #1
    614c:	11f0cacc 	mvnsne	r12, r12, asr #21
    6150:	0a00000e 	beq	6190 <__cmpdf2+0x58>
    6154:	e28dd004 	add	sp, sp, #4
    6158:	e190c081 	orrs	r12, r0, r1, lsl #1
    615c:	0192c083 	orrseq	r12, r2, r3, lsl #1
    6160:	11310003 	teqne	r1, r3
    6164:	01300002 	teqeq	r0, r2
    6168:	03a00000 	moveq	r0, #0
    616c:	012fff1e 	bxeq	lr
    6170:	e3700000 	cmn	r0, #0
    6174:	e1310003 	teq	r1, r3
    6178:	51510003 	cmppl	r1, r3
    617c:	01500002 	cmpeq	r0, r2
    6180:	21a00fc3 	asrcs	r0, r3, #31
    6184:	31e00fc3 	mvncc	r0, r3, asr #31
    6188:	e3800001 	orr	r0, r0, #1
    618c:	e12fff1e 	bx	lr
    6190:	e1a0c081 	lsl	r12, r1, #1
    6194:	e1f0cacc 	mvns	r12, r12, asr #21
    6198:	1a000001 	bne	61a4 <__cmpdf2+0x6c>
    619c:	e190c601 	orrs	r12, r0, r1, lsl #12
    61a0:	1a000004 	bne	61b8 <__cmpdf2+0x80>
    61a4:	e1a0c083 	lsl	r12, r3, #1
    61a8:	e1f0cacc 	mvns	r12, r12, asr #21
    61ac:	1affffe8 	bne	6154 <__cmpdf2+0x1c>
    61b0:	e192c603 	orrs	r12, r2, r3, lsl #12
    61b4:	0affffe6 	beq	6154 <__cmpdf2+0x1c>
    61b8:	e49d0004 	pop	{r0}		; (ldr r0, [sp], #4)
    61bc:	e12fff1e 	bx	lr

000061c0 <__aeabi_cdrcmple>:
    61c0:	e1a0c000 	mov	r12, r0
    61c4:	e1a00002 	mov	r0, r2
    61c8:	e1a0200c 	mov	r2, r12
    61cc:	e1a0c001 	mov	r12, r1
    61d0:	e1a01003 	mov	r1, r3
    61d4:	e1a0300c 	mov	r3, r12
    61d8:	eaffffff 	b	61dc <__aeabi_cdcmpeq>

000061dc <__aeabi_cdcmpeq>:
    61dc:	e92d4001 	push	{r0, lr}
    61e0:	ebffffd4 	bl	6138 <__cmpdf2>
    61e4:	e3500000 	cmp	r0, #0
    61e8:	43700000 	cmnmi	r0, #0
    61ec:	e8bd4001 	pop	{r0, lr}
    61f0:	e12fff1e 	bx	lr

000061f4 <__aeabi_dcmpeq>:
    61f4:	e52de008 	str	lr, [sp, #-8]!
    61f8:	ebfffff7 	bl	61dc <__aeabi_cdcmpeq>
    61fc:	03a00001 	moveq	r0, #1
    6200:	13a00000 	movne	r0, #0
    6204:	e49de008 	ldr	lr, [sp], #8
    6208:	e12fff1e 	bx	lr

0000620c <__aeabi_dcmplt>:
    620c:	e52de008 	str	lr, [sp, #-8]!
    6210:	ebfffff1 	bl	61dc <__aeabi_cdcmpeq>
    6214:	33a00001 	movcc	r0, #1
    6218:	23a00000 	movcs	r0, #0
    621c:	e49de008 	ldr	lr, [sp], #8
    6220:	e12fff1e 	bx	lr

00006224 <__aeabi_dcmple>:
    6224:	e52de008 	str	lr, [sp, #-8]!
    6228:	ebffffeb 	bl	61dc <__aeabi_cdcmpeq>
    622c:	93a00001 	movls	r0, #1
    6230:	83a00000 	movhi	r0, #0
    6234:	e49de008 	ldr	lr, [sp], #8
    6238:	e12fff1e 	bx	lr

0000623c <__aeabi_dcmpge>:
    623c:	e52de008 	str	lr, [sp, #-8]!
    6240:	ebffffde 	bl	61c0 <__aeabi_cdrcmple>
    6244:	93a00001 	movls	r0, #1
    6248:	83a00000 	movhi	r0, #0
    624c:	e49de008 	ldr	lr, [sp], #8
    6250:	e12fff1e 	bx	lr

00006254 <__aeabi_dcmpgt>:
    6254:	e52de008 	str	lr, [sp, #-8]!
    6258:	ebffffd8 	bl	61c0 <__aeabi_cdrcmple>
    625c:	33a00001 	movcc	r0, #1
    6260:	23a00000 	movcs	r0, #0
    6264:	e49de008 	ldr	lr, [sp], #8
    6268:	e12fff1e 	bx	lr

0000626c <__aeabi_d2iz>:
    626c:	e1a02081 	lsl	r2, r1, #1
    6270:	e2922602 	adds	r2, r2, #2097152	; 0x200000
    6274:	2a00000c 	bcs	62ac <__aeabi_d2iz+0x40>
    6278:	5a000009 	bpl	62a4 <__aeabi_d2iz+0x38>
    627c:	e3e03e3e 	mvn	r3, #992	; 0x3e0
    6280:	e0532ac2 	subs	r2, r3, r2, asr #21
    6284:	9a00000a 	bls	62b4 <__aeabi_d2iz+0x48>
    6288:	e1a03581 	lsl	r3, r1, #11
    628c:	e3833102 	orr	r3, r3, #-2147483648	; 0x80000000
    6290:	e1833aa0 	orr	r3, r3, r0, lsr #21
    6294:	e3110102 	tst	r1, #-2147483648	; 0x80000000
    6298:	e1a00233 	lsr	r0, r3, r2
    629c:	12600000 	rsbne	r0, r0, #0
    62a0:	e12fff1e 	bx	lr
    62a4:	e3a00000 	mov	r0, #0
    62a8:	e12fff1e 	bx	lr
    62ac:	e1900601 	orrs	r0, r0, r1, lsl #12
    62b0:	1a000002 	bne	62c0 <__aeabi_d2iz+0x54>
    62b4:	e2110102 	ands	r0, r1, #-2147483648	; 0x80000000
    62b8:	03e00102 	mvneq	r0, #-2147483648	; 0x80000000
    62bc:	e12fff1e 	bx	lr
    62c0:	e3a00000 	mov	r0, #0
    62c4:	e12fff1e 	bx	lr

000062c8 <__aeabi_d2uiz>:
    62c8:	e1b02081 	lsls	r2, r1, #1
    62cc:	2a00000a 	bcs	62fc <__aeabi_d2uiz+0x34>
    62d0:	e2922602 	adds	r2, r2, #2097152	; 0x200000
    62d4:	2a00000a 	bcs	6304 <__aeabi_d2uiz+0x3c>
    62d8:	5a000007 	bpl	62fc <__aeabi_d2uiz+0x34>
    62dc:	e3e03e3e 	mvn	r3, #992	; 0x3e0
    62e0:	e0532ac2 	subs	r2, r3, r2, asr #21
    62e4:	4a000008 	bmi	630c <__aeabi_d2uiz+0x44>
    62e8:	e1a03581 	lsl	r3, r1, #11
    62ec:	e3833102 	orr	r3, r3, #-2147483648	; 0x80000000
    62f0:	e1833aa0 	orr	r3, r3, r0, lsr #21
    62f4:	e1a00233 	lsr	r0, r3, r2
    62f8:	e12fff1e 	bx	lr
    62fc:	e3a00000 	mov	r0, #0
    6300:	e12fff1e 	bx	lr
    6304:	e1900601 	orrs	r0, r0, r1, lsl #12
    6308:	1a000001 	bne	6314 <__aeabi_d2uiz+0x4c>
    630c:	e3e00000 	mvn	r0, #0
    6310:	e12fff1e 	bx	lr
    6314:	e3a00000 	mov	r0, #0
    6318:	e12fff1e 	bx	lr

0000631c <atexit>:
    631c:	e1a01000 	mov	r1, r0
    6320:	e3a00000 	mov	r0, #0
    6324:	e92d4008 	push	{r3, lr}
    6328:	e1a02000 	mov	r2, r0
    632c:	e1a03000 	mov	r3, r0
    6330:	eb000287 	bl	6d54 <__register_exitproc>
    6334:	e8bd4008 	pop	{r3, lr}
    6338:	e12fff1e 	bx	lr

0000633c <__errno>:
    633c:	e59f3004 	ldr	r3, [pc, #4]	; 6348 <__errno+0xc>
    6340:	e5930000 	ldr	r0, [r3]
    6344:	e12fff1e 	bx	lr
    6348:	001256f8 	.word	0x001256f8

0000634c <exit>:
    634c:	e92d4008 	push	{r3, lr}
    6350:	e3a01000 	mov	r1, #0
    6354:	e1a04000 	mov	r4, r0
    6358:	eb0002ba 	bl	6e48 <__call_exitprocs>
    635c:	e59f3018 	ldr	r3, [pc, #24]	; 637c <exit+0x30>
    6360:	e5930000 	ldr	r0, [r3]
    6364:	e590303c 	ldr	r3, [r0, #60]	; 0x3c
    6368:	e3530000 	cmp	r3, #0
    636c:	11a0e00f 	movne	lr, pc
    6370:	112fff13 	bxne	r3
    6374:	e1a00004 	mov	r0, r4
    6378:	eb00047f 	bl	757c <_exit>
    637c:	000079a0 	.word	0x000079a0

00006380 <malloc>:
    6380:	e92d4008 	push	{r3, lr}
    6384:	e59f3010 	ldr	r3, [pc, #16]	; 639c <malloc+0x1c>
    6388:	e1a01000 	mov	r1, r0
    638c:	e5930000 	ldr	r0, [r3]
    6390:	eb00000a 	bl	63c0 <_malloc_r>
    6394:	e8bd4008 	pop	{r3, lr}
    6398:	e12fff1e 	bx	lr
    639c:	001256f8 	.word	0x001256f8

000063a0 <free>:
    63a0:	e92d4008 	push	{r3, lr}
    63a4:	e59f3010 	ldr	r3, [pc, #16]	; 63bc <free+0x1c>
    63a8:	e1a01000 	mov	r1, r0
    63ac:	e5930000 	ldr	r0, [r3]
    63b0:	eb00035c 	bl	7128 <_free_r>
    63b4:	e8bd4008 	pop	{r3, lr}
    63b8:	e12fff1e 	bx	lr
    63bc:	001256f8 	.word	0x001256f8

000063c0 <_malloc_r>:
    63c0:	e92d4ff0 	push	{r4, r5, r6, r7, r8, r9, r10, r11, lr}
    63c4:	e281500b 	add	r5, r1, #11
    63c8:	e3550016 	cmp	r5, #22
    63cc:	83c55007 	bichi	r5, r5, #7
    63d0:	81a03fa5 	lsrhi	r3, r5, #31
    63d4:	93a03000 	movls	r3, #0
    63d8:	93a05010 	movls	r5, #16
    63dc:	e1550001 	cmp	r5, r1
    63e0:	21a01003 	movcs	r1, r3
    63e4:	33831001 	orrcc	r1, r3, #1
    63e8:	e3510000 	cmp	r1, #0
    63ec:	13a0300c 	movne	r3, #12
    63f0:	e24dd00c 	sub	sp, sp, #12
    63f4:	e1a06000 	mov	r6, r0
    63f8:	15803000 	strne	r3, [r0]
    63fc:	13a04000 	movne	r4, #0
    6400:	1a000015 	bne	645c <_malloc_r+0x9c>
    6404:	eb0001b4 	bl	6adc <__malloc_lock>
    6408:	e3550f7e 	cmp	r5, #504	; 0x1f8
    640c:	2a000016 	bcs	646c <_malloc_r+0xac>
    6410:	e59f76b8 	ldr	r7, [pc, #1720]	; 6ad0 <_malloc_r+0x710>
    6414:	e1a0e1a5 	lsr	lr, r5, #3
    6418:	e087318e 	add	r3, r7, lr, lsl #3
    641c:	e593400c 	ldr	r4, [r3, #12]
    6420:	e1540003 	cmp	r4, r3
    6424:	0a00014b 	beq	6958 <_malloc_r+0x598>
    6428:	e5943004 	ldr	r3, [r4, #4]
    642c:	e3c33003 	bic	r3, r3, #3
    6430:	e0843003 	add	r3, r4, r3
    6434:	e5930004 	ldr	r0, [r3, #4]
    6438:	e2841008 	add	r1, r4, #8
    643c:	e8910006 	ldm	r1, {r1, r2}
    6440:	e3800001 	orr	r0, r0, #1
    6444:	e5830004 	str	r0, [r3, #4]
    6448:	e581200c 	str	r2, [r1, #12]
    644c:	e5821008 	str	r1, [r2, #8]
    6450:	e1a00006 	mov	r0, r6
    6454:	eb0001a1 	bl	6ae0 <__malloc_unlock>
    6458:	e2844008 	add	r4, r4, #8
    645c:	e1a00004 	mov	r0, r4
    6460:	e28dd00c 	add	sp, sp, #12
    6464:	e8bd4ff0 	pop	{r4, r5, r6, r7, r8, r9, r10, r11, lr}
    6468:	e12fff1e 	bx	lr
    646c:	e1b0e4a5 	lsrs	lr, r5, #9
    6470:	01a0e1a5 	lsreq	lr, r5, #3
    6474:	01a0108e 	lsleq	r1, lr, #1
    6478:	1a000061 	bne	6604 <_malloc_r+0x244>
    647c:	e59f764c 	ldr	r7, [pc, #1612]	; 6ad0 <_malloc_r+0x710>
    6480:	e0871101 	add	r1, r7, r1, lsl #2
    6484:	e591400c 	ldr	r4, [r1, #12]
    6488:	e1510004 	cmp	r1, r4
    648c:	1a000005 	bne	64a8 <_malloc_r+0xe8>
    6490:	ea00000a 	b	64c0 <_malloc_r+0x100>
    6494:	e3530000 	cmp	r3, #0
    6498:	aa0000d7 	bge	67fc <_malloc_r+0x43c>
    649c:	e594400c 	ldr	r4, [r4, #12]
    64a0:	e1510004 	cmp	r1, r4
    64a4:	0a000005 	beq	64c0 <_malloc_r+0x100>
    64a8:	e5942004 	ldr	r2, [r4, #4]
    64ac:	e3c22003 	bic	r2, r2, #3
    64b0:	e0653002 	rsb	r3, r5, r2
    64b4:	e353000f 	cmp	r3, #15
    64b8:	dafffff5 	ble	6494 <_malloc_r+0xd4>
    64bc:	e24ee001 	sub	lr, lr, #1
    64c0:	e28ee001 	add	lr, lr, #1
    64c4:	e59f3604 	ldr	r3, [pc, #1540]	; 6ad0 <_malloc_r+0x710>
    64c8:	e5974010 	ldr	r4, [r7, #16]
    64cc:	e2838008 	add	r8, r3, #8
    64d0:	e1540008 	cmp	r4, r8
    64d4:	05931004 	ldreq	r1, [r3, #4]
    64d8:	0a000016 	beq	6538 <_malloc_r+0x178>
    64dc:	e5942004 	ldr	r2, [r4, #4]
    64e0:	e3c22003 	bic	r2, r2, #3
    64e4:	e0651002 	rsb	r1, r5, r2
    64e8:	e351000f 	cmp	r1, #15
    64ec:	ca0000f7 	bgt	68d0 <_malloc_r+0x510>
    64f0:	e3510000 	cmp	r1, #0
    64f4:	e5838014 	str	r8, [r3, #20]
    64f8:	e5838010 	str	r8, [r3, #16]
    64fc:	aa000046 	bge	661c <_malloc_r+0x25c>
    6500:	e3520c02 	cmp	r2, #512	; 0x200
    6504:	2a0000d2 	bcs	6854 <_malloc_r+0x494>
    6508:	e5930004 	ldr	r0, [r3, #4]
    650c:	e1a021a2 	lsr	r2, r2, #3
    6510:	e1a01142 	asr	r1, r2, #2
    6514:	e3a0c001 	mov	r12, #1
    6518:	e180111c 	orr	r1, r0, r12, lsl r1
    651c:	e0832182 	add	r2, r3, r2, lsl #3
    6520:	e5920008 	ldr	r0, [r2, #8]
    6524:	e584200c 	str	r2, [r4, #12]
    6528:	e5840008 	str	r0, [r4, #8]
    652c:	e5831004 	str	r1, [r3, #4]
    6530:	e5824008 	str	r4, [r2, #8]
    6534:	e580400c 	str	r4, [r0, #12]
    6538:	e1a0014e 	asr	r0, lr, #2
    653c:	e3a03001 	mov	r3, #1
    6540:	e1a00013 	lsl	r0, r3, r0
    6544:	e1500001 	cmp	r0, r1
    6548:	8a00003b 	bhi	663c <_malloc_r+0x27c>
    654c:	e1110000 	tst	r1, r0
    6550:	1a000008 	bne	6578 <_malloc_r+0x1b8>
    6554:	e1a00310 	lsl	r0, r0, r3
    6558:	e3cee003 	bic	lr, lr, #3
    655c:	e1110000 	tst	r1, r0
    6560:	e28ee004 	add	lr, lr, #4
    6564:	1a000003 	bne	6578 <_malloc_r+0x1b8>
    6568:	e1a00080 	lsl	r0, r0, #1
    656c:	e1110000 	tst	r1, r0
    6570:	e28ee004 	add	lr, lr, #4
    6574:	0afffffb 	beq	6568 <_malloc_r+0x1a8>
    6578:	e087a18e 	add	r10, r7, lr, lsl #3
    657c:	e1a0c00a 	mov	r12, r10
    6580:	e1a0400e 	mov	r4, lr
    6584:	e59c300c 	ldr	r3, [r12, #12]
    6588:	e15c0003 	cmp	r12, r3
    658c:	1a000005 	bne	65a8 <_malloc_r+0x1e8>
    6590:	ea0000db 	b	6904 <_malloc_r+0x544>
    6594:	e3520000 	cmp	r2, #0
    6598:	aa0000f4 	bge	6970 <_malloc_r+0x5b0>
    659c:	e593300c 	ldr	r3, [r3, #12]
    65a0:	e15c0003 	cmp	r12, r3
    65a4:	0a0000d6 	beq	6904 <_malloc_r+0x544>
    65a8:	e5931004 	ldr	r1, [r3, #4]
    65ac:	e3c11003 	bic	r1, r1, #3
    65b0:	e0652001 	rsb	r2, r5, r1
    65b4:	e352000f 	cmp	r2, #15
    65b8:	dafffff5 	ble	6594 <_malloc_r+0x1d4>
    65bc:	e1a04003 	mov	r4, r3
    65c0:	e593000c 	ldr	r0, [r3, #12]
    65c4:	e5b4c008 	ldr	r12, [r4, #8]!
    65c8:	e0831005 	add	r1, r3, r5
    65cc:	e382e001 	orr	lr, r2, #1
    65d0:	e3855001 	orr	r5, r5, #1
    65d4:	e58c000c 	str	r0, [r12, #12]
    65d8:	e580c008 	str	r12, [r0, #8]
    65dc:	e5835004 	str	r5, [r3, #4]
    65e0:	e5871014 	str	r1, [r7, #20]
    65e4:	e5871010 	str	r1, [r7, #16]
    65e8:	e581800c 	str	r8, [r1, #12]
    65ec:	e5818008 	str	r8, [r1, #8]
    65f0:	e581e004 	str	lr, [r1, #4]
    65f4:	e7812002 	str	r2, [r1, r2]
    65f8:	e1a00006 	mov	r0, r6
    65fc:	eb000137 	bl	6ae0 <__malloc_unlock>
    6600:	eaffff95 	b	645c <_malloc_r+0x9c>
    6604:	e35e0004 	cmp	lr, #4
    6608:	8a000087 	bhi	682c <_malloc_r+0x46c>
    660c:	e1a0e325 	lsr	lr, r5, #6
    6610:	e28ee038 	add	lr, lr, #56	; 0x38
    6614:	e1a0108e 	lsl	r1, lr, #1
    6618:	eaffff97 	b	647c <_malloc_r+0xbc>
    661c:	e0842002 	add	r2, r4, r2
    6620:	e5923004 	ldr	r3, [r2, #4]
    6624:	e3833001 	orr	r3, r3, #1
    6628:	e5823004 	str	r3, [r2, #4]
    662c:	e1a00006 	mov	r0, r6
    6630:	eb00012a 	bl	6ae0 <__malloc_unlock>
    6634:	e2844008 	add	r4, r4, #8
    6638:	eaffff87 	b	645c <_malloc_r+0x9c>
    663c:	e5974008 	ldr	r4, [r7, #8]
    6640:	e594a004 	ldr	r10, [r4, #4]
    6644:	e3caa003 	bic	r10, r10, #3
    6648:	e155000a 	cmp	r5, r10
    664c:	8a000002 	bhi	665c <_malloc_r+0x29c>
    6650:	e065300a 	rsb	r3, r5, r10
    6654:	e353000f 	cmp	r3, #15
    6658:	ca00005d 	bgt	67d4 <_malloc_r+0x414>
    665c:	e59f9470 	ldr	r9, [pc, #1136]	; 6ad4 <_malloc_r+0x714>
    6660:	e5973408 	ldr	r3, [r7, #1032]	; 0x408
    6664:	e599b000 	ldr	r11, [r9]
    6668:	e3730001 	cmn	r3, #1
    666c:	e085b00b 	add	r11, r5, r11
    6670:	128bba01 	addne	r11, r11, #4096	; 0x1000
    6674:	128bb00f 	addne	r11, r11, #15
    6678:	13cbbeff 	bicne	r11, r11, #4080	; 0xff0
    667c:	028bb010 	addeq	r11, r11, #16
    6680:	13cbb00f 	bicne	r11, r11, #15
    6684:	e084200a 	add	r2, r4, r10
    6688:	e1a00006 	mov	r0, r6
    668c:	e1a0100b 	mov	r1, r11
    6690:	e58d2004 	str	r2, [sp, #4]
    6694:	eb000112 	bl	6ae4 <_sbrk_r>
    6698:	e3700001 	cmn	r0, #1
    669c:	e1a08000 	mov	r8, r0
    66a0:	e59d2004 	ldr	r2, [sp, #4]
    66a4:	0a0000e2 	beq	6a34 <_malloc_r+0x674>
    66a8:	e1520000 	cmp	r2, r0
    66ac:	8a0000bf 	bhi	69b0 <_malloc_r+0x5f0>
    66b0:	e5993004 	ldr	r3, [r9, #4]
    66b4:	e1520008 	cmp	r2, r8
    66b8:	e08b3003 	add	r3, r11, r3
    66bc:	e5893004 	str	r3, [r9, #4]
    66c0:	0a0000df 	beq	6a44 <_malloc_r+0x684>
    66c4:	e5971408 	ldr	r1, [r7, #1032]	; 0x408
    66c8:	e3710001 	cmn	r1, #1
    66cc:	10622008 	rsbne	r2, r2, r8
    66d0:	059f33f8 	ldreq	r3, [pc, #1016]	; 6ad0 <_malloc_r+0x710>
    66d4:	10833002 	addne	r3, r3, r2
    66d8:	05838408 	streq	r8, [r3, #1032]	; 0x408
    66dc:	15893004 	strne	r3, [r9, #4]
    66e0:	e2183007 	ands	r3, r8, #7
    66e4:	12632008 	rsbne	r2, r3, #8
    66e8:	10888002 	addne	r8, r8, r2
    66ec:	12633a01 	rsbne	r3, r3, #4096	; 0x1000
    66f0:	12832008 	addne	r2, r3, #8
    66f4:	e088300b 	add	r3, r8, r11
    66f8:	03a02a01 	moveq	r2, #4096	; 0x1000
    66fc:	e1a03a03 	lsl	r3, r3, #20
    6700:	e042ba23 	sub	r11, r2, r3, lsr #20
    6704:	e1a0100b 	mov	r1, r11
    6708:	e1a00006 	mov	r0, r6
    670c:	eb0000f4 	bl	6ae4 <_sbrk_r>
    6710:	e3700001 	cmn	r0, #1
    6714:	10682000 	rsbne	r2, r8, r0
    6718:	e5993004 	ldr	r3, [r9, #4]
    671c:	108b2002 	addne	r2, r11, r2
    6720:	03a0b000 	moveq	r11, #0
    6724:	13822001 	orrne	r2, r2, #1
    6728:	03a02001 	moveq	r2, #1
    672c:	e08b3003 	add	r3, r11, r3
    6730:	e1540007 	cmp	r4, r7
    6734:	e5893004 	str	r3, [r9, #4]
    6738:	e5878008 	str	r8, [r7, #8]
    673c:	e5882004 	str	r2, [r8, #4]
    6740:	0a00000d 	beq	677c <_malloc_r+0x3bc>
    6744:	e35a000f 	cmp	r10, #15
    6748:	9a0000ac 	bls	6a00 <_malloc_r+0x640>
    674c:	e594c004 	ldr	r12, [r4, #4]
    6750:	e24a200c 	sub	r2, r10, #12
    6754:	e3c22007 	bic	r2, r2, #7
    6758:	e20cc001 	and	r12, r12, #1
    675c:	e0841002 	add	r1, r4, r2
    6760:	e3a00005 	mov	r0, #5
    6764:	e182c00c 	orr	r12, r2, r12
    6768:	e352000f 	cmp	r2, #15
    676c:	e584c004 	str	r12, [r4, #4]
    6770:	e5810004 	str	r0, [r1, #4]
    6774:	e5810008 	str	r0, [r1, #8]
    6778:	8a0000b8 	bhi	6a60 <_malloc_r+0x6a0>
    677c:	e599202c 	ldr	r2, [r9, #44]	; 0x2c
    6780:	e1530002 	cmp	r3, r2
    6784:	859f2348 	ldrhi	r2, [pc, #840]	; 6ad4 <_malloc_r+0x714>
    6788:	8582302c 	strhi	r3, [r2, #44]	; 0x2c
    678c:	e5992030 	ldr	r2, [r9, #48]	; 0x30
    6790:	e5974008 	ldr	r4, [r7, #8]
    6794:	e1530002 	cmp	r3, r2
    6798:	95943004 	ldrls	r3, [r4, #4]
    679c:	85942004 	ldrhi	r2, [r4, #4]
    67a0:	859f132c 	ldrhi	r1, [pc, #812]	; 6ad4 <_malloc_r+0x714>
    67a4:	93c33003 	bicls	r3, r3, #3
    67a8:	85813030 	strhi	r3, [r1, #48]	; 0x30
    67ac:	83c23003 	bichi	r3, r2, #3
    67b0:	e1550003 	cmp	r5, r3
    67b4:	e0653003 	rsb	r3, r5, r3
    67b8:	8a000001 	bhi	67c4 <_malloc_r+0x404>
    67bc:	e353000f 	cmp	r3, #15
    67c0:	ca000003 	bgt	67d4 <_malloc_r+0x414>
    67c4:	e1a00006 	mov	r0, r6
    67c8:	eb0000c4 	bl	6ae0 <__malloc_unlock>
    67cc:	e3a04000 	mov	r4, #0
    67d0:	eaffff21 	b	645c <_malloc_r+0x9c>
    67d4:	e0842005 	add	r2, r4, r5
    67d8:	e3833001 	orr	r3, r3, #1
    67dc:	e3855001 	orr	r5, r5, #1
    67e0:	e5845004 	str	r5, [r4, #4]
    67e4:	e1a00006 	mov	r0, r6
    67e8:	e5823004 	str	r3, [r2, #4]
    67ec:	e5872008 	str	r2, [r7, #8]
    67f0:	e2844008 	add	r4, r4, #8
    67f4:	eb0000b9 	bl	6ae0 <__malloc_unlock>
    67f8:	eaffff17 	b	645c <_malloc_r+0x9c>
    67fc:	e0842002 	add	r2, r4, r2
    6800:	e5920004 	ldr	r0, [r2, #4]
    6804:	e2841008 	add	r1, r4, #8
    6808:	e891000a 	ldm	r1, {r1, r3}
    680c:	e3800001 	orr	r0, r0, #1
    6810:	e5820004 	str	r0, [r2, #4]
    6814:	e581300c 	str	r3, [r1, #12]
    6818:	e5831008 	str	r1, [r3, #8]
    681c:	e1a00006 	mov	r0, r6
    6820:	eb0000ae 	bl	6ae0 <__malloc_unlock>
    6824:	e2844008 	add	r4, r4, #8
    6828:	eaffff0b 	b	645c <_malloc_r+0x9c>
    682c:	e35e0014 	cmp	lr, #20
    6830:	928ee05b 	addls	lr, lr, #91	; 0x5b
    6834:	91a0108e 	lslls	r1, lr, #1
    6838:	9affff0f 	bls	647c <_malloc_r+0xbc>
    683c:	e35e0054 	cmp	lr, #84	; 0x54
    6840:	8a000061 	bhi	69cc <_malloc_r+0x60c>
    6844:	e1a0e625 	lsr	lr, r5, #12
    6848:	e28ee06e 	add	lr, lr, #110	; 0x6e
    684c:	e1a0108e 	lsl	r1, lr, #1
    6850:	eaffff09 	b	647c <_malloc_r+0xbc>
    6854:	e1a034a2 	lsr	r3, r2, #9
    6858:	e3530004 	cmp	r3, #4
    685c:	9a00004f 	bls	69a0 <_malloc_r+0x5e0>
    6860:	e3530014 	cmp	r3, #20
    6864:	9283a05b 	addls	r10, r3, #91	; 0x5b
    6868:	91a0008a 	lslls	r0, r10, #1
    686c:	9a000004 	bls	6884 <_malloc_r+0x4c4>
    6870:	e3530054 	cmp	r3, #84	; 0x54
    6874:	8a00007f 	bhi	6a78 <_malloc_r+0x6b8>
    6878:	e1a0a622 	lsr	r10, r2, #12
    687c:	e28aa06e 	add	r10, r10, #110	; 0x6e
    6880:	e1a0008a 	lsl	r0, r10, #1
    6884:	e0870100 	add	r0, r7, r0, lsl #2
    6888:	e5903008 	ldr	r3, [r0, #8]
    688c:	e1530000 	cmp	r3, r0
    6890:	e59fc238 	ldr	r12, [pc, #568]	; 6ad0 <_malloc_r+0x710>
    6894:	0a000052 	beq	69e4 <_malloc_r+0x624>
    6898:	e5931004 	ldr	r1, [r3, #4]
    689c:	e3c11003 	bic	r1, r1, #3
    68a0:	e1520001 	cmp	r2, r1
    68a4:	2a000002 	bcs	68b4 <_malloc_r+0x4f4>
    68a8:	e5933008 	ldr	r3, [r3, #8]
    68ac:	e1500003 	cmp	r0, r3
    68b0:	1afffff8 	bne	6898 <_malloc_r+0x4d8>
    68b4:	e593200c 	ldr	r2, [r3, #12]
    68b8:	e5971004 	ldr	r1, [r7, #4]
    68bc:	e584200c 	str	r2, [r4, #12]
    68c0:	e5843008 	str	r3, [r4, #8]
    68c4:	e583400c 	str	r4, [r3, #12]
    68c8:	e5824008 	str	r4, [r2, #8]
    68cc:	eaffff19 	b	6538 <_malloc_r+0x178>
    68d0:	e0842005 	add	r2, r4, r5
    68d4:	e3810001 	orr	r0, r1, #1
    68d8:	e3855001 	orr	r5, r5, #1
    68dc:	e5845004 	str	r5, [r4, #4]
    68e0:	e5832014 	str	r2, [r3, #20]
    68e4:	e5832010 	str	r2, [r3, #16]
    68e8:	e582800c 	str	r8, [r2, #12]
    68ec:	e9820101 	stmib	r2, {r0, r8}
    68f0:	e7821001 	str	r1, [r2, r1]
    68f4:	e1a00006 	mov	r0, r6
    68f8:	eb000078 	bl	6ae0 <__malloc_unlock>
    68fc:	e2844008 	add	r4, r4, #8
    6900:	eafffed5 	b	645c <_malloc_r+0x9c>
    6904:	e2844001 	add	r4, r4, #1
    6908:	e3140003 	tst	r4, #3
    690c:	e28cc008 	add	r12, r12, #8
    6910:	1affff1b 	bne	6584 <_malloc_r+0x1c4>
    6914:	e31e0003 	tst	lr, #3
    6918:	e24a3008 	sub	r3, r10, #8
    691c:	0a000062 	beq	6aac <_malloc_r+0x6ec>
    6920:	e59aa000 	ldr	r10, [r10]
    6924:	e15a0003 	cmp	r10, r3
    6928:	e24ee001 	sub	lr, lr, #1
    692c:	0afffff8 	beq	6914 <_malloc_r+0x554>
    6930:	e5973004 	ldr	r3, [r7, #4]
    6934:	e1a00080 	lsl	r0, r0, #1
    6938:	e1500003 	cmp	r0, r3
    693c:	8affff3e 	bhi	663c <_malloc_r+0x27c>
    6940:	e3500000 	cmp	r0, #0
    6944:	0affff3c 	beq	663c <_malloc_r+0x27c>
    6948:	e1130000 	tst	r3, r0
    694c:	0a00005a 	beq	6abc <_malloc_r+0x6fc>
    6950:	e1a0e004 	mov	lr, r4
    6954:	eaffff07 	b	6578 <_malloc_r+0x1b8>
    6958:	e2843008 	add	r3, r4, #8
    695c:	e5944014 	ldr	r4, [r4, #20]
    6960:	e1530004 	cmp	r3, r4
    6964:	028ee002 	addeq	lr, lr, #2
    6968:	0afffed5 	beq	64c4 <_malloc_r+0x104>
    696c:	eafffead 	b	6428 <_malloc_r+0x68>
    6970:	e0831001 	add	r1, r3, r1
    6974:	e5910004 	ldr	r0, [r1, #4]
    6978:	e1a04003 	mov	r4, r3
    697c:	e5b42008 	ldr	r2, [r4, #8]!
    6980:	e593300c 	ldr	r3, [r3, #12]
    6984:	e3800001 	orr	r0, r0, #1
    6988:	e5810004 	str	r0, [r1, #4]
    698c:	e582300c 	str	r3, [r2, #12]
    6990:	e5832008 	str	r2, [r3, #8]
    6994:	e1a00006 	mov	r0, r6
    6998:	eb000050 	bl	6ae0 <__malloc_unlock>
    699c:	eafffeae 	b	645c <_malloc_r+0x9c>
    69a0:	e1a0a322 	lsr	r10, r2, #6
    69a4:	e28aa038 	add	r10, r10, #56	; 0x38
    69a8:	e1a0008a 	lsl	r0, r10, #1
    69ac:	eaffffb4 	b	6884 <_malloc_r+0x4c4>
    69b0:	e1540007 	cmp	r4, r7
    69b4:	0affff3d 	beq	66b0 <_malloc_r+0x2f0>
    69b8:	e59f3110 	ldr	r3, [pc, #272]	; 6ad0 <_malloc_r+0x710>
    69bc:	e5934008 	ldr	r4, [r3, #8]
    69c0:	e5943004 	ldr	r3, [r4, #4]
    69c4:	e3c33003 	bic	r3, r3, #3
    69c8:	eaffff78 	b	67b0 <_malloc_r+0x3f0>
    69cc:	e35e0f55 	cmp	lr, #340	; 0x154
    69d0:	8a00000f 	bhi	6a14 <_malloc_r+0x654>
    69d4:	e1a0e7a5 	lsr	lr, r5, #15
    69d8:	e28ee077 	add	lr, lr, #119	; 0x77
    69dc:	e1a0108e 	lsl	r1, lr, #1
    69e0:	eafffea5 	b	647c <_malloc_r+0xbc>
    69e4:	e59c2004 	ldr	r2, [r12, #4]
    69e8:	e1a0a14a 	asr	r10, r10, #2
    69ec:	e3a01001 	mov	r1, #1
    69f0:	e1821a11 	orr	r1, r2, r1, lsl r10
    69f4:	e1a02003 	mov	r2, r3
    69f8:	e58c1004 	str	r1, [r12, #4]
    69fc:	eaffffae 	b	68bc <_malloc_r+0x4fc>
    6a00:	e3a03001 	mov	r3, #1
    6a04:	e5883004 	str	r3, [r8, #4]
    6a08:	e1a04008 	mov	r4, r8
    6a0c:	e3a03000 	mov	r3, #0
    6a10:	eaffff66 	b	67b0 <_malloc_r+0x3f0>
    6a14:	e59f30bc 	ldr	r3, [pc, #188]	; 6ad8 <_malloc_r+0x718>
    6a18:	e15e0003 	cmp	lr, r3
    6a1c:	91a0e925 	lsrls	lr, r5, #18
    6a20:	928ee07c 	addls	lr, lr, #124	; 0x7c
    6a24:	91a0108e 	lslls	r1, lr, #1
    6a28:	83a010fc 	movhi	r1, #252	; 0xfc
    6a2c:	83a0e07e 	movhi	lr, #126	; 0x7e
    6a30:	eafffe91 	b	647c <_malloc_r+0xbc>
    6a34:	e5974008 	ldr	r4, [r7, #8]
    6a38:	e5943004 	ldr	r3, [r4, #4]
    6a3c:	e3c33003 	bic	r3, r3, #3
    6a40:	eaffff5a 	b	67b0 <_malloc_r+0x3f0>
    6a44:	e1b01a02 	lsls	r1, r2, #20
    6a48:	1affff1d 	bne	66c4 <_malloc_r+0x304>
    6a4c:	e5972008 	ldr	r2, [r7, #8]
    6a50:	e08b100a 	add	r1, r11, r10
    6a54:	e3811001 	orr	r1, r1, #1
    6a58:	e5821004 	str	r1, [r2, #4]
    6a5c:	eaffff46 	b	677c <_malloc_r+0x3bc>
    6a60:	e1a00006 	mov	r0, r6
    6a64:	e2841008 	add	r1, r4, #8
    6a68:	eb0001ae 	bl	7128 <_free_r>
    6a6c:	e59f3060 	ldr	r3, [pc, #96]	; 6ad4 <_malloc_r+0x714>
    6a70:	e5933004 	ldr	r3, [r3, #4]
    6a74:	eaffff40 	b	677c <_malloc_r+0x3bc>
    6a78:	e3530f55 	cmp	r3, #340	; 0x154
    6a7c:	91a0a7a2 	lsrls	r10, r2, #15
    6a80:	928aa077 	addls	r10, r10, #119	; 0x77
    6a84:	91a0008a 	lslls	r0, r10, #1
    6a88:	9affff7d 	bls	6884 <_malloc_r+0x4c4>
    6a8c:	e59f1044 	ldr	r1, [pc, #68]	; 6ad8 <_malloc_r+0x718>
    6a90:	e1530001 	cmp	r3, r1
    6a94:	91a0a922 	lsrls	r10, r2, #18
    6a98:	928aa07c 	addls	r10, r10, #124	; 0x7c
    6a9c:	91a0008a 	lslls	r0, r10, #1
    6aa0:	83a000fc 	movhi	r0, #252	; 0xfc
    6aa4:	83a0a07e 	movhi	r10, #126	; 0x7e
    6aa8:	eaffff75 	b	6884 <_malloc_r+0x4c4>
    6aac:	e5973004 	ldr	r3, [r7, #4]
    6ab0:	e1c33000 	bic	r3, r3, r0
    6ab4:	e5873004 	str	r3, [r7, #4]
    6ab8:	eaffff9d 	b	6934 <_malloc_r+0x574>
    6abc:	e1a00080 	lsl	r0, r0, #1
    6ac0:	e1130000 	tst	r3, r0
    6ac4:	e2844004 	add	r4, r4, #4
    6ac8:	1affffa0 	bne	6950 <_malloc_r+0x590>
    6acc:	eafffffa 	b	6abc <_malloc_r+0x6fc>
    6ad0:	00125b28 	.word	0x00125b28
    6ad4:	00153cc4 	.word	0x00153cc4
    6ad8:	00000554 	.word	0x00000554

00006adc <__malloc_lock>:
    6adc:	e12fff1e 	bx	lr

00006ae0 <__malloc_unlock>:
    6ae0:	e12fff1e 	bx	lr

00006ae4 <_sbrk_r>:
    6ae4:	e92d4038 	push	{r3, r4, r5, lr}
    6ae8:	e59f4030 	ldr	r4, [pc, #48]	; 6b20 <_sbrk_r+0x3c>
    6aec:	e3a03000 	mov	r3, #0
    6af0:	e1a05000 	mov	r5, r0
    6af4:	e1a00001 	mov	r0, r1
    6af8:	e5843000 	str	r3, [r4]
    6afc:	eb0002a4 	bl	7594 <_sbrk>
    6b00:	e3700001 	cmn	r0, #1
    6b04:	0a000001 	beq	6b10 <_sbrk_r+0x2c>
    6b08:	e8bd4038 	pop	{r3, r4, r5, lr}
    6b0c:	e12fff1e 	bx	lr
    6b10:	e5943000 	ldr	r3, [r4]
    6b14:	e3530000 	cmp	r3, #0
    6b18:	15853000 	strne	r3, [r5]
    6b1c:	eafffff9 	b	6b08 <_sbrk_r+0x24>
    6b20:	00153cf8 	.word	0x00153cf8

00006b24 <strcmp>:
    6b24:	e0202001 	eor	r2, r0, r1
    6b28:	e3120003 	tst	r2, #3
    6b2c:	1a000021 	bne	6bb8 <strcmp_unaligned>
    6b30:	e2102003 	ands	r2, r0, #3
    6b34:	e3c00003 	bic	r0, r0, #3
    6b38:	e3c11003 	bic	r1, r1, #3
    6b3c:	e490c004 	ldr	r12, [r0], #4
    6b40:	04913004 	ldreq	r3, [r1], #4
    6b44:	0a000006 	beq	6b64 <strcmp+0x40>
    6b48:	e2222003 	eor	r2, r2, #3
    6b4c:	e1a02182 	lsl	r2, r2, #3
    6b50:	e3e034ff 	mvn	r3, #-16777216	; 0xff000000
    6b54:	e1a02233 	lsr	r2, r3, r2
    6b58:	e4913004 	ldr	r3, [r1], #4
    6b5c:	e18cc002 	orr	r12, r12, r2
    6b60:	e1833002 	orr	r3, r3, r2
    6b64:	e52d4004 	push	{r4}		; (str r4, [sp, #-4]!)
    6b68:	e3a04001 	mov	r4, #1
    6b6c:	e1844404 	orr	r4, r4, r4, lsl #8
    6b70:	e1844804 	orr	r4, r4, r4, lsl #16
    6b74:	e04c2004 	sub	r2, r12, r4
    6b78:	e15c0003 	cmp	r12, r3
    6b7c:	01c2200c 	biceq	r2, r2, r12
    6b80:	01120384 	tsteq	r2, r4, lsl #7
    6b84:	0490c004 	ldreq	r12, [r0], #4
    6b88:	04913004 	ldreq	r3, [r1], #4
    6b8c:	0afffff8 	beq	6b74 <strcmp+0x50>
    6b90:	e1a00c0c 	lsl	r0, r12, #24
    6b94:	e1a0c42c 	lsr	r12, r12, #8
    6b98:	e3500001 	cmp	r0, #1
    6b9c:	21500c03 	cmpcs	r0, r3, lsl #24
    6ba0:	01a03423 	lsreq	r3, r3, #8
    6ba4:	0afffff9 	beq	6b90 <strcmp+0x6c>
    6ba8:	e20330ff 	and	r3, r3, #255	; 0xff
    6bac:	e0630c20 	rsb	r0, r3, r0, lsr #24
    6bb0:	e49d4004 	pop	{r4}		; (ldr r4, [sp], #4)
    6bb4:	e12fff1e 	bx	lr

00006bb8 <strcmp_unaligned>:
    6bb8:	e3100003 	tst	r0, #3
    6bbc:	0a000006 	beq	6bdc <strcmp_unaligned+0x24>
    6bc0:	e4d02001 	ldrb	r2, [r0], #1
    6bc4:	e4d13001 	ldrb	r3, [r1], #1
    6bc8:	e3520001 	cmp	r2, #1
    6bcc:	21520003 	cmpcs	r2, r3
    6bd0:	0afffff8 	beq	6bb8 <strcmp_unaligned>
    6bd4:	e0420003 	sub	r0, r2, r3
    6bd8:	e12fff1e 	bx	lr
    6bdc:	e52d5004 	push	{r5}		; (str r5, [sp, #-4]!)
    6be0:	e52d4004 	push	{r4}		; (str r4, [sp, #-4]!)
    6be4:	e3a02001 	mov	r2, #1
    6be8:	e1822402 	orr	r2, r2, r2, lsl #8
    6bec:	e1822802 	orr	r2, r2, r2, lsl #16
    6bf0:	e201c003 	and	r12, r1, #3
    6bf4:	e3c11003 	bic	r1, r1, #3
    6bf8:	e4904004 	ldr	r4, [r0], #4
    6bfc:	e4915004 	ldr	r5, [r1], #4
    6c00:	e35c0002 	cmp	r12, #2
    6c04:	0a000017 	beq	6c68 <strcmp_unaligned+0xb0>
    6c08:	8a00002d 	bhi	6cc4 <strcmp_unaligned+0x10c>
    6c0c:	e3c4c4ff 	bic	r12, r4, #-16777216	; 0xff000000
    6c10:	e15c0425 	cmp	r12, r5, lsr #8
    6c14:	e0443002 	sub	r3, r4, r2
    6c18:	e1c33004 	bic	r3, r3, r4
    6c1c:	1a000007 	bne	6c40 <strcmp_unaligned+0x88>
    6c20:	e0133382 	ands	r3, r3, r2, lsl #7
    6c24:	04915004 	ldreq	r5, [r1], #4
    6c28:	1a000006 	bne	6c48 <strcmp_unaligned+0x90>
    6c2c:	e02cc004 	eor	r12, r12, r4
    6c30:	e15c0c05 	cmp	r12, r5, lsl #24
    6c34:	1a000008 	bne	6c5c <strcmp_unaligned+0xa4>
    6c38:	e4904004 	ldr	r4, [r0], #4
    6c3c:	eafffff2 	b	6c0c <strcmp_unaligned+0x54>
    6c40:	e1a05425 	lsr	r5, r5, #8
    6c44:	ea000037 	b	6d28 <strcmp_unaligned+0x170>
    6c48:	e3d334ff 	bics	r3, r3, #-16777216	; 0xff000000
    6c4c:	1a000031 	bne	6d18 <strcmp_unaligned+0x160>
    6c50:	e5d15000 	ldrb	r5, [r1]
    6c54:	e1a0cc24 	lsr	r12, r4, #24
    6c58:	ea000032 	b	6d28 <strcmp_unaligned+0x170>
    6c5c:	e1a0cc24 	lsr	r12, r4, #24
    6c60:	e20550ff 	and	r5, r5, #255	; 0xff
    6c64:	ea00002f 	b	6d28 <strcmp_unaligned+0x170>
    6c68:	e1a0c804 	lsl	r12, r4, #16
    6c6c:	e0443002 	sub	r3, r4, r2
    6c70:	e1a0c82c 	lsr	r12, r12, #16
    6c74:	e1c33004 	bic	r3, r3, r4
    6c78:	e15c0825 	cmp	r12, r5, lsr #16
    6c7c:	1a00000e 	bne	6cbc <strcmp_unaligned+0x104>
    6c80:	e0133382 	ands	r3, r3, r2, lsl #7
    6c84:	04915004 	ldreq	r5, [r1], #4
    6c88:	1a000004 	bne	6ca0 <strcmp_unaligned+0xe8>
    6c8c:	e02cc004 	eor	r12, r12, r4
    6c90:	e15c0805 	cmp	r12, r5, lsl #16
    6c94:	1a000006 	bne	6cb4 <strcmp_unaligned+0xfc>
    6c98:	e4904004 	ldr	r4, [r0], #4
    6c9c:	eafffff1 	b	6c68 <strcmp_unaligned+0xb0>
    6ca0:	e1b03803 	lsls	r3, r3, #16
    6ca4:	1a00001b 	bne	6d18 <strcmp_unaligned+0x160>
    6ca8:	e1d150b0 	ldrh	r5, [r1]
    6cac:	e1a0c824 	lsr	r12, r4, #16
    6cb0:	ea00001c 	b	6d28 <strcmp_unaligned+0x170>
    6cb4:	e1a05805 	lsl	r5, r5, #16
    6cb8:	e1a0c824 	lsr	r12, r4, #16
    6cbc:	e1a05825 	lsr	r5, r5, #16
    6cc0:	ea000018 	b	6d28 <strcmp_unaligned+0x170>
    6cc4:	e204c0ff 	and	r12, r4, #255	; 0xff
    6cc8:	e15c0c25 	cmp	r12, r5, lsr #24
    6ccc:	e0443002 	sub	r3, r4, r2
    6cd0:	e1c33004 	bic	r3, r3, r4
    6cd4:	1a000007 	bne	6cf8 <strcmp_unaligned+0x140>
    6cd8:	e0133382 	ands	r3, r3, r2, lsl #7
    6cdc:	04915004 	ldreq	r5, [r1], #4
    6ce0:	1a000006 	bne	6d00 <strcmp_unaligned+0x148>
    6ce4:	e02cc004 	eor	r12, r12, r4
    6ce8:	e15c0405 	cmp	r12, r5, lsl #8
    6cec:	1a000006 	bne	6d0c <strcmp_unaligned+0x154>
    6cf0:	e4904004 	ldr	r4, [r0], #4
    6cf4:	eafffff2 	b	6cc4 <strcmp_unaligned+0x10c>
    6cf8:	e1a05c25 	lsr	r5, r5, #24
    6cfc:	ea000009 	b	6d28 <strcmp_unaligned+0x170>
    6d00:	e31400ff 	tst	r4, #255	; 0xff
    6d04:	0a000003 	beq	6d18 <strcmp_unaligned+0x160>
    6d08:	e4915004 	ldr	r5, [r1], #4
    6d0c:	e1a0c424 	lsr	r12, r4, #8
    6d10:	e3c554ff 	bic	r5, r5, #-16777216	; 0xff000000
    6d14:	ea000003 	b	6d28 <strcmp_unaligned+0x170>
    6d18:	e3a00000 	mov	r0, #0
    6d1c:	e49d4004 	pop	{r4}		; (ldr r4, [sp], #4)
    6d20:	e49d5004 	pop	{r5}		; (ldr r5, [sp], #4)
    6d24:	e12fff1e 	bx	lr
    6d28:	e20c20ff 	and	r2, r12, #255	; 0xff
    6d2c:	e20500ff 	and	r0, r5, #255	; 0xff
    6d30:	e3500001 	cmp	r0, #1
    6d34:	21500002 	cmpcs	r0, r2
    6d38:	01a0c42c 	lsreq	r12, r12, #8
    6d3c:	01a05425 	lsreq	r5, r5, #8
    6d40:	0afffff8 	beq	6d28 <strcmp_unaligned+0x170>
    6d44:	e0420000 	sub	r0, r2, r0
    6d48:	e49d4004 	pop	{r4}		; (ldr r4, [sp], #4)
    6d4c:	e49d5004 	pop	{r5}		; (ldr r5, [sp], #4)
    6d50:	e12fff1e 	bx	lr

00006d54 <__register_exitproc>:
    6d54:	e59fc0e4 	ldr	r12, [pc, #228]	; 6e40 <__register_exitproc+0xec>
    6d58:	e92d41f0 	push	{r4, r5, r6, r7, r8, lr}
    6d5c:	e59c4000 	ldr	r4, [r12]
    6d60:	e594c148 	ldr	r12, [r4, #328]	; 0x148
    6d64:	e35c0000 	cmp	r12, #0
    6d68:	0284cf53 	addeq	r12, r4, #332	; 0x14c
    6d6c:	e59c5004 	ldr	r5, [r12, #4]
    6d70:	0584c148 	streq	r12, [r4, #328]	; 0x148
    6d74:	e355001f 	cmp	r5, #31
    6d78:	e24dd010 	sub	sp, sp, #16
    6d7c:	e1a06000 	mov	r6, r0
    6d80:	da000015 	ble	6ddc <__register_exitproc+0x88>
    6d84:	e59f00b8 	ldr	r0, [pc, #184]	; 6e44 <__register_exitproc+0xf0>
    6d88:	e3500000 	cmp	r0, #0
    6d8c:	1a000001 	bne	6d98 <__register_exitproc+0x44>
    6d90:	e3e00000 	mvn	r0, #0
    6d94:	ea000018 	b	6dfc <__register_exitproc+0xa8>
    6d98:	e3a00e19 	mov	r0, #400	; 0x190
    6d9c:	e58d100c 	str	r1, [sp, #12]
    6da0:	e58d2008 	str	r2, [sp, #8]
    6da4:	e58d3004 	str	r3, [sp, #4]
    6da8:	ebfffd74 	bl	6380 <malloc>
    6dac:	e250c000 	subs	r12, r0, #0
    6db0:	e59d100c 	ldr	r1, [sp, #12]
    6db4:	e59d2008 	ldr	r2, [sp, #8]
    6db8:	e59d3004 	ldr	r3, [sp, #4]
    6dbc:	0afffff3 	beq	6d90 <__register_exitproc+0x3c>
    6dc0:	e5945148 	ldr	r5, [r4, #328]	; 0x148
    6dc4:	e3a00000 	mov	r0, #0
    6dc8:	e58c0004 	str	r0, [r12, #4]
    6dcc:	e58c5000 	str	r5, [r12]
    6dd0:	e584c148 	str	r12, [r4, #328]	; 0x148
    6dd4:	e58c0188 	str	r0, [r12, #392]	; 0x188
    6dd8:	e58c018c 	str	r0, [r12, #396]	; 0x18c
    6ddc:	e3560000 	cmp	r6, #0
    6de0:	e59c4004 	ldr	r4, [r12, #4]
    6de4:	1a000007 	bne	6e08 <__register_exitproc+0xb4>
    6de8:	e2843002 	add	r3, r4, #2
    6dec:	e2844001 	add	r4, r4, #1
    6df0:	e78c1103 	str	r1, [r12, r3, lsl #2]
    6df4:	e58c4004 	str	r4, [r12, #4]
    6df8:	e3a00000 	mov	r0, #0
    6dfc:	e28dd010 	add	sp, sp, #16
    6e00:	e8bd41f0 	pop	{r4, r5, r6, r7, r8, lr}
    6e04:	e12fff1e 	bx	lr
    6e08:	e3a00001 	mov	r0, #1
    6e0c:	e1a00410 	lsl	r0, r0, r4
    6e10:	e08c8104 	add	r8, r12, r4, lsl #2
    6e14:	e3560002 	cmp	r6, #2
    6e18:	e59c7188 	ldr	r7, [r12, #392]	; 0x188
    6e1c:	e5883108 	str	r3, [r8, #264]	; 0x108
    6e20:	059c318c 	ldreq	r3, [r12, #396]	; 0x18c
    6e24:	e1877000 	orr	r7, r7, r0
    6e28:	01830000 	orreq	r0, r3, r0
    6e2c:	e1a05008 	mov	r5, r8
    6e30:	e5882088 	str	r2, [r8, #136]	; 0x88
    6e34:	e58c7188 	str	r7, [r12, #392]	; 0x188
    6e38:	058c018c 	streq	r0, [r12, #396]	; 0x18c
    6e3c:	eaffffe9 	b	6de8 <__register_exitproc+0x94>
    6e40:	000079a0 	.word	0x000079a0
    6e44:	00006380 	.word	0x00006380

00006e48 <__call_exitprocs>:
    6e48:	e92d4ff0 	push	{r4, r5, r6, r7, r8, r9, r10, r11, lr}
    6e4c:	e59f3168 	ldr	r3, [pc, #360]	; 6fbc <__call_exitprocs+0x174>
    6e50:	e5933000 	ldr	r3, [r3]
    6e54:	e24dd014 	sub	sp, sp, #20
    6e58:	e58d3004 	str	r3, [sp, #4]
    6e5c:	e2833f52 	add	r3, r3, #328	; 0x148
    6e60:	e58d0008 	str	r0, [sp, #8]
    6e64:	e58d300c 	str	r3, [sp, #12]
    6e68:	e1a07001 	mov	r7, r1
    6e6c:	e3a08001 	mov	r8, #1
    6e70:	e59d3004 	ldr	r3, [sp, #4]
    6e74:	e5936148 	ldr	r6, [r3, #328]	; 0x148
    6e78:	e3560000 	cmp	r6, #0
    6e7c:	e59db00c 	ldr	r11, [sp, #12]
    6e80:	0a000033 	beq	6f54 <__call_exitprocs+0x10c>
    6e84:	e5965004 	ldr	r5, [r6, #4]
    6e88:	e2554001 	subs	r4, r5, #1
    6e8c:	5286a088 	addpl	r10, r6, #136	; 0x88
    6e90:	5285501f 	addpl	r5, r5, #31
    6e94:	508a5105 	addpl	r5, r10, r5, lsl #2
    6e98:	5a000007 	bpl	6ebc <__call_exitprocs+0x74>
    6e9c:	ea000029 	b	6f48 <__call_exitprocs+0x100>
    6ea0:	e5953000 	ldr	r3, [r5]
    6ea4:	e1530007 	cmp	r3, r7
    6ea8:	0a000005 	beq	6ec4 <__call_exitprocs+0x7c>
    6eac:	e2444001 	sub	r4, r4, #1
    6eb0:	e3740001 	cmn	r4, #1
    6eb4:	e2455004 	sub	r5, r5, #4
    6eb8:	0a000022 	beq	6f48 <__call_exitprocs+0x100>
    6ebc:	e3570000 	cmp	r7, #0
    6ec0:	1afffff6 	bne	6ea0 <__call_exitprocs+0x58>
    6ec4:	e5963004 	ldr	r3, [r6, #4]
    6ec8:	e06a2005 	rsb	r2, r10, r5
    6ecc:	e2433001 	sub	r3, r3, #1
    6ed0:	e0862002 	add	r2, r6, r2
    6ed4:	e1530004 	cmp	r3, r4
    6ed8:	e5123078 	ldr	r3, [r2, #-120]	; 0xffffff88
    6edc:	13a01000 	movne	r1, #0
    6ee0:	05864004 	streq	r4, [r6, #4]
    6ee4:	15021078 	strne	r1, [r2, #-120]	; 0xffffff88
    6ee8:	e3530000 	cmp	r3, #0
    6eec:	0affffee 	beq	6eac <__call_exitprocs+0x64>
    6ef0:	e1a02418 	lsl	r2, r8, r4
    6ef4:	e5961188 	ldr	r1, [r6, #392]	; 0x188
    6ef8:	e1120001 	tst	r2, r1
    6efc:	e5969004 	ldr	r9, [r6, #4]
    6f00:	0a000016 	beq	6f60 <__call_exitprocs+0x118>
    6f04:	e596118c 	ldr	r1, [r6, #396]	; 0x18c
    6f08:	e1120001 	tst	r2, r1
    6f0c:	1a000016 	bne	6f6c <__call_exitprocs+0x124>
    6f10:	e59d0008 	ldr	r0, [sp, #8]
    6f14:	e5151080 	ldr	r1, [r5, #-128]	; 0xffffff80
    6f18:	e1a0e00f 	mov	lr, pc
    6f1c:	e12fff13 	bx	r3
    6f20:	e5963004 	ldr	r3, [r6, #4]
    6f24:	e1530009 	cmp	r3, r9
    6f28:	1affffd0 	bne	6e70 <__call_exitprocs+0x28>
    6f2c:	e59b3000 	ldr	r3, [r11]
    6f30:	e1530006 	cmp	r3, r6
    6f34:	1affffcd 	bne	6e70 <__call_exitprocs+0x28>
    6f38:	e2444001 	sub	r4, r4, #1
    6f3c:	e3740001 	cmn	r4, #1
    6f40:	e2455004 	sub	r5, r5, #4
    6f44:	1affffdc 	bne	6ebc <__call_exitprocs+0x74>
    6f48:	e59f1070 	ldr	r1, [pc, #112]	; 6fc0 <__call_exitprocs+0x178>
    6f4c:	e3510000 	cmp	r1, #0
    6f50:	1a000009 	bne	6f7c <__call_exitprocs+0x134>
    6f54:	e28dd014 	add	sp, sp, #20
    6f58:	e8bd4ff0 	pop	{r4, r5, r6, r7, r8, r9, r10, r11, lr}
    6f5c:	e12fff1e 	bx	lr
    6f60:	e1a0e00f 	mov	lr, pc
    6f64:	e12fff13 	bx	r3
    6f68:	eaffffec 	b	6f20 <__call_exitprocs+0xd8>
    6f6c:	e5150080 	ldr	r0, [r5, #-128]	; 0xffffff80
    6f70:	e1a0e00f 	mov	lr, pc
    6f74:	e12fff13 	bx	r3
    6f78:	eaffffe8 	b	6f20 <__call_exitprocs+0xd8>
    6f7c:	e5963004 	ldr	r3, [r6, #4]
    6f80:	e3530000 	cmp	r3, #0
    6f84:	e5963000 	ldr	r3, [r6]
    6f88:	1a000008 	bne	6fb0 <__call_exitprocs+0x168>
    6f8c:	e3530000 	cmp	r3, #0
    6f90:	0a000006 	beq	6fb0 <__call_exitprocs+0x168>
    6f94:	e1a00006 	mov	r0, r6
    6f98:	e58b3000 	str	r3, [r11]
    6f9c:	ebfffcff 	bl	63a0 <free>
    6fa0:	e59b6000 	ldr	r6, [r11]
    6fa4:	e3560000 	cmp	r6, #0
    6fa8:	1affffb5 	bne	6e84 <__call_exitprocs+0x3c>
    6fac:	eaffffe8 	b	6f54 <__call_exitprocs+0x10c>
    6fb0:	e1a0b006 	mov	r11, r6
    6fb4:	e1a06003 	mov	r6, r3
    6fb8:	eafffff9 	b	6fa4 <__call_exitprocs+0x15c>
    6fbc:	000079a0 	.word	0x000079a0
    6fc0:	000063a0 	.word	0x000063a0

00006fc4 <register_fini>:
    6fc4:	e92d4008 	push	{r3, lr}
    6fc8:	e59f3010 	ldr	r3, [pc, #16]	; 6fe0 <register_fini+0x1c>
    6fcc:	e3530000 	cmp	r3, #0
    6fd0:	159f000c 	ldrne	r0, [pc, #12]	; 6fe4 <register_fini+0x20>
    6fd4:	1bfffcd0 	blne	631c <atexit>
    6fd8:	e8bd4008 	pop	{r3, lr}
    6fdc:	e12fff1e 	bx	lr
    6fe0:	000079c4 	.word	0x000079c4
    6fe4:	00006fe8 	.word	0x00006fe8

00006fe8 <__libc_fini_array>:
    6fe8:	e92d4038 	push	{r3, r4, r5, lr}
    6fec:	e59f5030 	ldr	r5, [pc, #48]	; 7024 <__libc_fini_array+0x3c>
    6ff0:	e59f4030 	ldr	r4, [pc, #48]	; 7028 <__libc_fini_array+0x40>
    6ff4:	e0654004 	rsb	r4, r5, r4
    6ff8:	e1b04144 	asrs	r4, r4, #2
    6ffc:	10855104 	addne	r5, r5, r4, lsl #2
    7000:	0a000004 	beq	7018 <__libc_fini_array+0x30>
    7004:	e5353004 	ldr	r3, [r5, #-4]!
    7008:	e1a0e00f 	mov	lr, pc
    700c:	e12fff13 	bx	r3
    7010:	e2544001 	subs	r4, r4, #1
    7014:	1afffffa 	bne	7004 <__libc_fini_array+0x1c>
    7018:	eb000269 	bl	79c4 <__libc_fini>
    701c:	e8bd4038 	pop	{r3, r4, r5, lr}
    7020:	e12fff1e 	bx	lr
    7024:	000079dc 	.word	0x000079dc
    7028:	000079e0 	.word	0x000079e0

0000702c <_malloc_trim_r>:
    702c:	e92d40f8 	push	{r3, r4, r5, r6, r7, lr}
    7030:	e59f50e4 	ldr	r5, [pc, #228]	; 711c <_malloc_trim_r+0xf0>
    7034:	e1a07001 	mov	r7, r1
    7038:	e1a04000 	mov	r4, r0
    703c:	ebfffea6 	bl	6adc <__malloc_lock>
    7040:	e5953008 	ldr	r3, [r5, #8]
    7044:	e5936004 	ldr	r6, [r3, #4]
    7048:	e3c66003 	bic	r6, r6, #3
    704c:	e2863efe 	add	r3, r6, #4064	; 0xfe0
    7050:	e283300f 	add	r3, r3, #15
    7054:	e0677003 	rsb	r7, r7, r3
    7058:	e1a07627 	lsr	r7, r7, #12
    705c:	e2477001 	sub	r7, r7, #1
    7060:	e1a07607 	lsl	r7, r7, #12
    7064:	e3570a01 	cmp	r7, #4096	; 0x1000
    7068:	ba000006 	blt	7088 <_malloc_trim_r+0x5c>
    706c:	e1a00004 	mov	r0, r4
    7070:	e3a01000 	mov	r1, #0
    7074:	ebfffe9a 	bl	6ae4 <_sbrk_r>
    7078:	e5953008 	ldr	r3, [r5, #8]
    707c:	e0833006 	add	r3, r3, r6
    7080:	e1500003 	cmp	r0, r3
    7084:	0a000004 	beq	709c <_malloc_trim_r+0x70>
    7088:	e1a00004 	mov	r0, r4
    708c:	ebfffe93 	bl	6ae0 <__malloc_unlock>
    7090:	e3a00000 	mov	r0, #0
    7094:	e8bd40f8 	pop	{r3, r4, r5, r6, r7, lr}
    7098:	e12fff1e 	bx	lr
    709c:	e1a00004 	mov	r0, r4
    70a0:	e2671000 	rsb	r1, r7, #0
    70a4:	ebfffe8e 	bl	6ae4 <_sbrk_r>
    70a8:	e3700001 	cmn	r0, #1
    70ac:	0a00000b 	beq	70e0 <_malloc_trim_r+0xb4>
    70b0:	e59f3068 	ldr	r3, [pc, #104]	; 7120 <_malloc_trim_r+0xf4>
    70b4:	e5952008 	ldr	r2, [r5, #8]
    70b8:	e5931000 	ldr	r1, [r3]
    70bc:	e0676006 	rsb	r6, r7, r6
    70c0:	e3866001 	orr	r6, r6, #1
    70c4:	e0677001 	rsb	r7, r7, r1
    70c8:	e1a00004 	mov	r0, r4
    70cc:	e5826004 	str	r6, [r2, #4]
    70d0:	e5837000 	str	r7, [r3]
    70d4:	ebfffe81 	bl	6ae0 <__malloc_unlock>
    70d8:	e3a00001 	mov	r0, #1
    70dc:	eaffffec 	b	7094 <_malloc_trim_r+0x68>
    70e0:	e1a00004 	mov	r0, r4
    70e4:	e3a01000 	mov	r1, #0
    70e8:	ebfffe7d 	bl	6ae4 <_sbrk_r>
    70ec:	e5953008 	ldr	r3, [r5, #8]
    70f0:	e0632000 	rsb	r2, r3, r0
    70f4:	e352000f 	cmp	r2, #15
    70f8:	daffffe2 	ble	7088 <_malloc_trim_r+0x5c>
    70fc:	e59f1020 	ldr	r1, [pc, #32]	; 7124 <_malloc_trim_r+0xf8>
    7100:	e5911000 	ldr	r1, [r1]
    7104:	e0610000 	rsb	r0, r1, r0
    7108:	e59f1010 	ldr	r1, [pc, #16]	; 7120 <_malloc_trim_r+0xf4>
    710c:	e3822001 	orr	r2, r2, #1
    7110:	e5810000 	str	r0, [r1]
    7114:	e5832004 	str	r2, [r3, #4]
    7118:	eaffffda 	b	7088 <_malloc_trim_r+0x5c>
    711c:	00125b28 	.word	0x00125b28
    7120:	00153cc8 	.word	0x00153cc8
    7124:	00125f30 	.word	0x00125f30

00007128 <_free_r>:
    7128:	e92d40f8 	push	{r3, r4, r5, r6, r7, lr}
    712c:	e2514000 	subs	r4, r1, #0
    7130:	e1a06000 	mov	r6, r0
    7134:	0a000046 	beq	7254 <_free_r+0x12c>
    7138:	ebfffe67 	bl	6adc <__malloc_lock>
    713c:	e514e004 	ldr	lr, [r4, #-4]
    7140:	e59f1238 	ldr	r1, [pc, #568]	; 7380 <_free_r+0x258>
    7144:	e244c008 	sub	r12, r4, #8
    7148:	e3ce3001 	bic	r3, lr, #1
    714c:	e08c2003 	add	r2, r12, r3
    7150:	e5910008 	ldr	r0, [r1, #8]
    7154:	e5925004 	ldr	r5, [r2, #4]
    7158:	e1500002 	cmp	r0, r2
    715c:	e3c55003 	bic	r5, r5, #3
    7160:	0a00004a 	beq	7290 <_free_r+0x168>
    7164:	e21ee001 	ands	lr, lr, #1
    7168:	e5825004 	str	r5, [r2, #4]
    716c:	13a0e000 	movne	lr, #0
    7170:	1a000009 	bne	719c <_free_r+0x74>
    7174:	e5144008 	ldr	r4, [r4, #-8]
    7178:	e064c00c 	rsb	r12, r4, r12
    717c:	e59c0008 	ldr	r0, [r12, #8]
    7180:	e2817008 	add	r7, r1, #8
    7184:	e1500007 	cmp	r0, r7
    7188:	e0833004 	add	r3, r3, r4
    718c:	159c400c 	ldrne	r4, [r12, #12]
    7190:	1580400c 	strne	r4, [r0, #12]
    7194:	15840008 	strne	r0, [r4, #8]
    7198:	03a0e001 	moveq	lr, #1
    719c:	e0820005 	add	r0, r2, r5
    71a0:	e5900004 	ldr	r0, [r0, #4]
    71a4:	e3100001 	tst	r0, #1
    71a8:	1a000009 	bne	71d4 <_free_r+0xac>
    71ac:	e35e0000 	cmp	lr, #0
    71b0:	e5920008 	ldr	r0, [r2, #8]
    71b4:	e0833005 	add	r3, r3, r5
    71b8:	1a000002 	bne	71c8 <_free_r+0xa0>
    71bc:	e59f41c0 	ldr	r4, [pc, #448]	; 7384 <_free_r+0x25c>
    71c0:	e1500004 	cmp	r0, r4
    71c4:	0a000047 	beq	72e8 <_free_r+0x1c0>
    71c8:	e592200c 	ldr	r2, [r2, #12]
    71cc:	e580200c 	str	r2, [r0, #12]
    71d0:	e5820008 	str	r0, [r2, #8]
    71d4:	e3832001 	orr	r2, r3, #1
    71d8:	e35e0000 	cmp	lr, #0
    71dc:	e58c2004 	str	r2, [r12, #4]
    71e0:	e78c3003 	str	r3, [r12, r3]
    71e4:	1a000018 	bne	724c <_free_r+0x124>
    71e8:	e3530c02 	cmp	r3, #512	; 0x200
    71ec:	3a00001a 	bcc	725c <_free_r+0x134>
    71f0:	e1a024a3 	lsr	r2, r3, #9
    71f4:	e3520004 	cmp	r2, #4
    71f8:	8a000042 	bhi	7308 <_free_r+0x1e0>
    71fc:	e1a0e323 	lsr	lr, r3, #6
    7200:	e28ee038 	add	lr, lr, #56	; 0x38
    7204:	e1a0008e 	lsl	r0, lr, #1
    7208:	e0810100 	add	r0, r1, r0, lsl #2
    720c:	e5902008 	ldr	r2, [r0, #8]
    7210:	e1520000 	cmp	r2, r0
    7214:	e59f1164 	ldr	r1, [pc, #356]	; 7380 <_free_r+0x258>
    7218:	0a000044 	beq	7330 <_free_r+0x208>
    721c:	e5921004 	ldr	r1, [r2, #4]
    7220:	e3c11003 	bic	r1, r1, #3
    7224:	e1530001 	cmp	r3, r1
    7228:	2a000002 	bcs	7238 <_free_r+0x110>
    722c:	e5922008 	ldr	r2, [r2, #8]
    7230:	e1500002 	cmp	r0, r2
    7234:	1afffff8 	bne	721c <_free_r+0xf4>
    7238:	e592300c 	ldr	r3, [r2, #12]
    723c:	e58c300c 	str	r3, [r12, #12]
    7240:	e58c2008 	str	r2, [r12, #8]
    7244:	e582c00c 	str	r12, [r2, #12]
    7248:	e583c008 	str	r12, [r3, #8]
    724c:	e1a00006 	mov	r0, r6
    7250:	ebfffe22 	bl	6ae0 <__malloc_unlock>
    7254:	e8bd40f8 	pop	{r3, r4, r5, r6, r7, lr}
    7258:	e12fff1e 	bx	lr
    725c:	e5912004 	ldr	r2, [r1, #4]
    7260:	e1a031a3 	lsr	r3, r3, #3
    7264:	e1a00143 	asr	r0, r3, #2
    7268:	e3a0e001 	mov	lr, #1
    726c:	e182001e 	orr	r0, r2, lr, lsl r0
    7270:	e0813183 	add	r3, r1, r3, lsl #3
    7274:	e5932008 	ldr	r2, [r3, #8]
    7278:	e58c300c 	str	r3, [r12, #12]
    727c:	e58c2008 	str	r2, [r12, #8]
    7280:	e5810004 	str	r0, [r1, #4]
    7284:	e583c008 	str	r12, [r3, #8]
    7288:	e582c00c 	str	r12, [r2, #12]
    728c:	eaffffee 	b	724c <_free_r+0x124>
    7290:	e31e0001 	tst	lr, #1
    7294:	e0853003 	add	r3, r5, r3
    7298:	1a000006 	bne	72b8 <_free_r+0x190>
    729c:	e5142008 	ldr	r2, [r4, #-8]
    72a0:	e062c00c 	rsb	r12, r2, r12
    72a4:	e59c000c 	ldr	r0, [r12, #12]
    72a8:	e59ce008 	ldr	lr, [r12, #8]
    72ac:	e58e000c 	str	r0, [lr, #12]
    72b0:	e580e008 	str	lr, [r0, #8]
    72b4:	e0833002 	add	r3, r3, r2
    72b8:	e59f20c8 	ldr	r2, [pc, #200]	; 7388 <_free_r+0x260>
    72bc:	e5920000 	ldr	r0, [r2]
    72c0:	e3832001 	orr	r2, r3, #1
    72c4:	e1530000 	cmp	r3, r0
    72c8:	e58c2004 	str	r2, [r12, #4]
    72cc:	e581c008 	str	r12, [r1, #8]
    72d0:	3affffdd 	bcc	724c <_free_r+0x124>
    72d4:	e59f30b0 	ldr	r3, [pc, #176]	; 738c <_free_r+0x264>
    72d8:	e1a00006 	mov	r0, r6
    72dc:	e5931000 	ldr	r1, [r3]
    72e0:	ebffff51 	bl	702c <_malloc_trim_r>
    72e4:	eaffffd8 	b	724c <_free_r+0x124>
    72e8:	e3832001 	orr	r2, r3, #1
    72ec:	e581c014 	str	r12, [r1, #20]
    72f0:	e581c010 	str	r12, [r1, #16]
    72f4:	e58c000c 	str	r0, [r12, #12]
    72f8:	e58c0008 	str	r0, [r12, #8]
    72fc:	e58c2004 	str	r2, [r12, #4]
    7300:	e78c3003 	str	r3, [r12, r3]
    7304:	eaffffd0 	b	724c <_free_r+0x124>
    7308:	e3520014 	cmp	r2, #20
    730c:	9282e05b 	addls	lr, r2, #91	; 0x5b
    7310:	91a0008e 	lslls	r0, lr, #1
    7314:	9affffbb 	bls	7208 <_free_r+0xe0>
    7318:	e3520054 	cmp	r2, #84	; 0x54
    731c:	8a00000a 	bhi	734c <_free_r+0x224>
    7320:	e1a0e623 	lsr	lr, r3, #12
    7324:	e28ee06e 	add	lr, lr, #110	; 0x6e
    7328:	e1a0008e 	lsl	r0, lr, #1
    732c:	eaffffb5 	b	7208 <_free_r+0xe0>
    7330:	e5913004 	ldr	r3, [r1, #4]
    7334:	e1a0e14e 	asr	lr, lr, #2
    7338:	e3a00001 	mov	r0, #1
    733c:	e1830e10 	orr	r0, r3, r0, lsl lr
    7340:	e1a03002 	mov	r3, r2
    7344:	e5810004 	str	r0, [r1, #4]
    7348:	eaffffbb 	b	723c <_free_r+0x114>
    734c:	e3520f55 	cmp	r2, #340	; 0x154
    7350:	91a0e7a3 	lsrls	lr, r3, #15
    7354:	928ee077 	addls	lr, lr, #119	; 0x77
    7358:	91a0008e 	lslls	r0, lr, #1
    735c:	9affffa9 	bls	7208 <_free_r+0xe0>
    7360:	e59f0028 	ldr	r0, [pc, #40]	; 7390 <_free_r+0x268>
    7364:	e1520000 	cmp	r2, r0
    7368:	91a0e923 	lsrls	lr, r3, #18
    736c:	928ee07c 	addls	lr, lr, #124	; 0x7c
    7370:	91a0008e 	lslls	r0, lr, #1
    7374:	83a000fc 	movhi	r0, #252	; 0xfc
    7378:	83a0e07e 	movhi	lr, #126	; 0x7e
    737c:	eaffffa1 	b	7208 <_free_r+0xe0>
    7380:	00125b28 	.word	0x00125b28
    7384:	00125b30 	.word	0x00125b30
    7388:	00125f34 	.word	0x00125f34
    738c:	00153cc4 	.word	0x00153cc4
    7390:	00000554 	.word	0x00000554

00007394 <cleanup_glue>:
    7394:	e92d4038 	push	{r3, r4, r5, lr}
    7398:	e1a04001 	mov	r4, r1
    739c:	e5911000 	ldr	r1, [r1]
    73a0:	e3510000 	cmp	r1, #0
    73a4:	e1a05000 	mov	r5, r0
    73a8:	1bfffff9 	blne	7394 <cleanup_glue>
    73ac:	e1a00005 	mov	r0, r5
    73b0:	e1a01004 	mov	r1, r4
    73b4:	ebffff5b 	bl	7128 <_free_r>
    73b8:	e8bd4038 	pop	{r3, r4, r5, lr}
    73bc:	e12fff1e 	bx	lr

000073c0 <_reclaim_reent>:
    73c0:	e59f30f0 	ldr	r3, [pc, #240]	; 74b8 <_reclaim_reent+0xf8>
    73c4:	e5933000 	ldr	r3, [r3]
    73c8:	e1500003 	cmp	r0, r3
    73cc:	e92d4070 	push	{r4, r5, r6, lr}
    73d0:	e1a05000 	mov	r5, r0
    73d4:	0a00002b 	beq	7488 <_reclaim_reent+0xc8>
    73d8:	e590204c 	ldr	r2, [r0, #76]	; 0x4c
    73dc:	e3520000 	cmp	r2, #0
    73e0:	0a000011 	beq	742c <_reclaim_reent+0x6c>
    73e4:	e3a03000 	mov	r3, #0
    73e8:	e1a06003 	mov	r6, r3
    73ec:	e7921103 	ldr	r1, [r2, r3, lsl #2]
    73f0:	e3510000 	cmp	r1, #0
    73f4:	0a000005 	beq	7410 <_reclaim_reent+0x50>
    73f8:	e5914000 	ldr	r4, [r1]
    73fc:	e1a00005 	mov	r0, r5
    7400:	ebffff48 	bl	7128 <_free_r>
    7404:	e2541000 	subs	r1, r4, #0
    7408:	1afffffa 	bne	73f8 <_reclaim_reent+0x38>
    740c:	e595204c 	ldr	r2, [r5, #76]	; 0x4c
    7410:	e2866001 	add	r6, r6, #1
    7414:	e3560020 	cmp	r6, #32
    7418:	e1a03006 	mov	r3, r6
    741c:	1afffff2 	bne	73ec <_reclaim_reent+0x2c>
    7420:	e1a00005 	mov	r0, r5
    7424:	e1a01002 	mov	r1, r2
    7428:	ebffff3e 	bl	7128 <_free_r>
    742c:	e5951040 	ldr	r1, [r5, #64]	; 0x40
    7430:	e3510000 	cmp	r1, #0
    7434:	11a00005 	movne	r0, r5
    7438:	1bffff3a 	blne	7128 <_free_r>
    743c:	e5951148 	ldr	r1, [r5, #328]	; 0x148
    7440:	e3510000 	cmp	r1, #0
    7444:	0a000008 	beq	746c <_reclaim_reent+0xac>
    7448:	e2856f53 	add	r6, r5, #332	; 0x14c
    744c:	e1510006 	cmp	r1, r6
    7450:	0a000005 	beq	746c <_reclaim_reent+0xac>
    7454:	e5914000 	ldr	r4, [r1]
    7458:	e1a00005 	mov	r0, r5
    745c:	ebffff31 	bl	7128 <_free_r>
    7460:	e1560004 	cmp	r6, r4
    7464:	e1a01004 	mov	r1, r4
    7468:	1afffff9 	bne	7454 <_reclaim_reent+0x94>
    746c:	e5951054 	ldr	r1, [r5, #84]	; 0x54
    7470:	e3510000 	cmp	r1, #0
    7474:	11a00005 	movne	r0, r5
    7478:	1bffff2a 	blne	7128 <_free_r>
    747c:	e5953038 	ldr	r3, [r5, #56]	; 0x38
    7480:	e3530000 	cmp	r3, #0
    7484:	1a000001 	bne	7490 <_reclaim_reent+0xd0>
    7488:	e8bd4070 	pop	{r4, r5, r6, lr}
    748c:	e12fff1e 	bx	lr
    7490:	e1a00005 	mov	r0, r5
    7494:	e595c03c 	ldr	r12, [r5, #60]	; 0x3c
    7498:	e1a0e00f 	mov	lr, pc
    749c:	e12fff1c 	bx	r12
    74a0:	e59512e0 	ldr	r1, [r5, #736]	; 0x2e0
    74a4:	e3510000 	cmp	r1, #0
    74a8:	0afffff6 	beq	7488 <_reclaim_reent+0xc8>
    74ac:	e1a00005 	mov	r0, r5
    74b0:	e8bd4070 	pop	{r4, r5, r6, lr}
    74b4:	eaffffb6 	b	7394 <cleanup_glue>
    74b8:	001256f8 	.word	0x001256f8

000074bc <_wrapup_reent>:
    74bc:	e92d40f8 	push	{r3, r4, r5, r6, r7, lr}
    74c0:	e2507000 	subs	r7, r0, #0
    74c4:	059f3060 	ldreq	r3, [pc, #96]	; 752c <_wrapup_reent+0x70>
    74c8:	05937000 	ldreq	r7, [r3]
    74cc:	e5976148 	ldr	r6, [r7, #328]	; 0x148
    74d0:	e3560000 	cmp	r6, #0
    74d4:	0a00000d 	beq	7510 <_wrapup_reent+0x54>
    74d8:	e5965004 	ldr	r5, [r6, #4]
    74dc:	e2554001 	subs	r4, r5, #1
    74e0:	52855002 	addpl	r5, r5, #2
    74e4:	50865105 	addpl	r5, r6, r5, lsl #2
    74e8:	4a000005 	bmi	7504 <_wrapup_reent+0x48>
    74ec:	e5353004 	ldr	r3, [r5, #-4]!
    74f0:	e2444001 	sub	r4, r4, #1
    74f4:	e1a0e00f 	mov	lr, pc
    74f8:	e12fff13 	bx	r3
    74fc:	e3740001 	cmn	r4, #1
    7500:	1afffff9 	bne	74ec <_wrapup_reent+0x30>
    7504:	e5966000 	ldr	r6, [r6]
    7508:	e3560000 	cmp	r6, #0
    750c:	1afffff1 	bne	74d8 <_wrapup_reent+0x1c>
    7510:	e597303c 	ldr	r3, [r7, #60]	; 0x3c
    7514:	e3530000 	cmp	r3, #0
    7518:	11a00007 	movne	r0, r7
    751c:	11a0e00f 	movne	lr, pc
    7520:	112fff13 	bxne	r3
    7524:	e8bd40f8 	pop	{r3, r4, r5, r6, r7, lr}
    7528:	e12fff1e 	bx	lr
    752c:	001256f8 	.word	0x001256f8

00007530 <__cs3_premain>:
    7530:	e92d4008 	push	{r3, lr}
    7534:	eb000033 	bl	7608 <__libc_init_array>
    7538:	e59f3030 	ldr	r3, [pc, #48]	; 7570 <__cs3_premain+0x40>
    753c:	e3530000 	cmp	r3, #0
    7540:	15930000 	ldrne	r0, [r3]
    7544:	01a00003 	moveq	r0, r3
    7548:	e59f3024 	ldr	r3, [pc, #36]	; 7574 <__cs3_premain+0x44>
    754c:	e3530000 	cmp	r3, #0
    7550:	15931000 	ldrne	r1, [r3]
    7554:	01a01003 	moveq	r1, r3
    7558:	e3a02000 	mov	r2, #0
    755c:	ebffe50b 	bl	990 <main>
    7560:	e59f3010 	ldr	r3, [pc, #16]	; 7578 <__cs3_premain+0x48>
    7564:	e3530000 	cmp	r3, #0
    7568:	1bfffb77 	blne	634c <exit>
    756c:	eafffffe 	b	756c <__cs3_premain+0x3c>
	...
    7578:	0000634c 	.word	0x0000634c

0000757c <_exit>:
    757c:	e52de004 	push	{lr}		; (str lr, [sp, #-4]!)
    7580:	e3a00018 	mov	r0, #24
    7584:	e59f1004 	ldr	r1, [pc, #4]	; 7590 <_exit+0x14>
    7588:	ef123456 	svc	0x00123456
    758c:	eafffffe 	b	758c <_exit+0x10>
    7590:	00020026 	.word	0x00020026

00007594 <_sbrk>:
    7594:	e92d4008 	push	{r3, lr}
    7598:	e59f305c 	ldr	r3, [pc, #92]	; 75fc <_sbrk+0x68>
    759c:	e59f105c 	ldr	r1, [pc, #92]	; 7600 <_sbrk+0x6c>
    75a0:	e5932000 	ldr	r2, [r3]
    75a4:	e5913000 	ldr	r3, [r1]
    75a8:	e3520000 	cmp	r2, #0
    75ac:	e0830000 	add	r0, r3, r0
    75b0:	0a000002 	beq	75c0 <_sbrk+0x2c>
    75b4:	e0602002 	rsb	r2, r0, r2
    75b8:	e3520000 	cmp	r2, #0
    75bc:	ba000009 	blt	75e8 <_sbrk+0x54>
    75c0:	e04d2003 	sub	r2, sp, r3
    75c4:	e3520000 	cmp	r2, #0
    75c8:	ba000002 	blt	75d8 <_sbrk+0x44>
    75cc:	e04d2000 	sub	r2, sp, r0
    75d0:	e35200ff 	cmp	r2, #255	; 0xff
    75d4:	da000003 	ble	75e8 <_sbrk+0x54>
    75d8:	e5810000 	str	r0, [r1]
    75dc:	e1a00003 	mov	r0, r3
    75e0:	e8bd4008 	pop	{r3, lr}
    75e4:	e12fff1e 	bx	lr
    75e8:	ebfffb53 	bl	633c <__errno>
    75ec:	e3a0300c 	mov	r3, #12
    75f0:	e5803000 	str	r3, [r0]
    75f4:	e3e03000 	mvn	r3, #0
    75f8:	eafffff7 	b	75dc <_sbrk+0x48>
    75fc:	00125f38 	.word	0x00125f38
    7600:	00125f3c 	.word	0x00125f3c

00007604 <__cs3_isr_interrupt>:
    7604:	eafffffe 	b	7604 <__cs3_isr_interrupt>

00007608 <__libc_init_array>:
    7608:	e92d4070 	push	{r4, r5, r6, lr}
    760c:	e59f506c 	ldr	r5, [pc, #108]	; 7680 <__libc_init_array+0x78>
    7610:	e59f606c 	ldr	r6, [pc, #108]	; 7684 <__libc_init_array+0x7c>
    7614:	e0656006 	rsb	r6, r5, r6
    7618:	e1b06146 	asrs	r6, r6, #2
    761c:	12455004 	subne	r5, r5, #4
    7620:	13a04000 	movne	r4, #0
    7624:	0a000005 	beq	7640 <__libc_init_array+0x38>
    7628:	e5b53004 	ldr	r3, [r5, #4]!
    762c:	e2844001 	add	r4, r4, #1
    7630:	e1a0e00f 	mov	lr, pc
    7634:	e12fff13 	bx	r3
    7638:	e1560004 	cmp	r6, r4
    763c:	1afffff9 	bne	7628 <__libc_init_array+0x20>
    7640:	e59f5040 	ldr	r5, [pc, #64]	; 7688 <__libc_init_array+0x80>
    7644:	e59f6040 	ldr	r6, [pc, #64]	; 768c <__libc_init_array+0x84>
    7648:	e0656006 	rsb	r6, r5, r6
    764c:	eb0000d4 	bl	79a4 <_init>
    7650:	e1b06146 	asrs	r6, r6, #2
    7654:	12455004 	subne	r5, r5, #4
    7658:	13a04000 	movne	r4, #0
    765c:	0a000005 	beq	7678 <__libc_init_array+0x70>
    7660:	e5b53004 	ldr	r3, [r5, #4]!
    7664:	e2844001 	add	r4, r4, #1
    7668:	e1a0e00f 	mov	lr, pc
    766c:	e12fff13 	bx	r3
    7670:	e1560004 	cmp	r6, r4
    7674:	1afffff9 	bne	7660 <__libc_init_array+0x58>
    7678:	e8bd4070 	pop	{r4, r5, r6, lr}
    767c:	e12fff1e 	bx	lr
    7680:	000079bc 	.word	0x000079bc
    7684:	000079bc 	.word	0x000079bc
    7688:	000079bc 	.word	0x000079bc
    768c:	000079c4 	.word	0x000079c4

Disassembly of section .rodata:

00007698 <seg7_codes>:
    7698:	4f5b063f 077d6d66 7c77677f 71795e39     ?.[Ofm}..gw|9^yq

000076a8 <song_list>:
    76a8:	00007a04 00000001 00007a10 00000001     .z.......z......
    76b8:	00007a1c 00000004 00007a4c 0000000b     .z......Lz......
    76c8:	00007ad0 00000003 00007af4 00000011     .z.......z......
    76d8:	00007bc0 00000003 00007be4 00000006     .{.......{......

000076e8 <volume_sensitivity>:
    76e8:	00000000 3ff80000                       .......?

000076f0 <default_volume>:
    76f0:	00000005                                ....

000076f4 <min_volume>:
    76f4:	00000000                                ....

000076f8 <max_volume>:
    76f8:	0000000a                                ....

000076fc <error_code>:
    76fc:	00000040 00000041 00007343 00000045     @...A...Cs..E...
    770c:	00000053 00000042 00007344 00007346     S...B...Ds..Fs..
    771c:	00000047 00000043 00000044 00000046     G...C...D...F...
    772c:	00007341 00007347 00000000              As..Gs......

00007738 <max_harmonics>:
    7738:	00000007 00000000                       ........

00007740 <harmonic_sensitivity>:
    7740:	66666666 3fe66666                       ffffff.?

00007748 <default_amplitude>:
    7748:	c0000000 4150624d                       ....MbPA

00007750 <sampling_period>:
    7750:	d2f1a9fc 3f20624d                       ....Mb ?

00007758 <sampling_frequency>:
    7758:	00001f40 00000000                       @.......

00007760 <pi>:
    7760:	54442d18 400921fb 00006244 00006245     .-DT.!.@Db..Eb..
    7770:	00006247 00006241 00006242 00776f70     Gb..Ab..Bb..pow.

00007780 <bp>:
    7780:	00000000 3ff00000 00000000 3ff80000     .......?.......?

00007790 <dp_l>:
	...
    7798:	43cfd006 3e4cfdeb                       ...C..L>

000077a0 <dp_h>:
	...
    77a8:	40000000 3fe2b803 00000000              ...@...?....

000077b4 <npio2_hw>:
    77b4:	3ff921fb 400921fb 4012d97c 401921fb     .!.?.!.@|..@.!.@
    77c4:	401f6a7a 4022d97c 4025fdbb 402921fb     zj.@|."@..%@.!)@
    77d4:	402c463a 402f6a7a 4031475c 4032d97c     :F,@zj/@\G1@|.2@
    77e4:	40346b9c 4035fdbb 40378fdb 403921fb     .k4@..5@..7@.!9@
    77f4:	403ab41b 403c463a 403dd85a 403f6a7a     ..:@:F<@Z.=@zj?@
    7804:	40407e4c 4041475c 4042106c 4042d97c     L~@@\GA@l.B@|.B@
    7814:	4043a28c 40446b9c 404534ac 4045fdbb     ..C@.kD@.4E@..E@
    7824:	4046c6cb 40478fdb 404858eb 404921fb     ..F@..G@.XH@.!I@

00007834 <two_over_pi>:
    7834:	00a2f983 006e4e44 001529fc 002757d1     ....DNn..)...W'.
    7844:	00f534dd 00c0db62 0095993c 00439041     .4..b...<...A.C.
    7854:	00fe5163 00abdebb 00c561b7 00246e3a     cQ.......a..:n$.
    7864:	00424dd2 00e00649 002eea09 00d1921c     .MB.I...........
    7874:	00fe1deb 001cb129 00a73ee8 008235f5     ....)....>...5..
    7884:	002ebb44 0084e99c 007026b4 005f7e41     D........&p.A~_.
    7894:	003991d6 00398353 0039f49c 00845f8b     ..9.S.9...9.._..
    78a4:	00bdf928 003b1ff8 0097ffde 0005980f     (.....;.........
    78b4:	00ef2f11 008b5a0a 006d1f6d 00367ecf     ./...Z..m.m..~6.
    78c4:	0027cb09 00b74f46 003f669e 005fea2d     ..'.FO...f?.-._.
    78d4:	007527ba 00c7ebe5 00f17b3d 000739f7     .'u.....={...9..
    78e4:	008a5292 00ea6bfb 005fb11f 008d5d08     .R...k...._..]..
    78f4:	00560330 0046fc7b 006babf0 00cfbc20     0.V.{.F...k. ...
    7904:	009af436 001da9e3 0091615e 00e61b08     6.......^a......
    7914:	00659985 005f14a0 0068408d 00ffd880     ..e..._..@h.....
    7924:	004d7327 00310606 001556ca 0073a8c9     'sM...1..V....s.
    7934:	0060e27b 00c08c6b 00000000              {.`.k.......

00007940 <init_jk>:
    7940:	00000002 00000003 00000004 00000006     ................

00007950 <PIo2>:
    7950:	40000000 3ff921fb 00000000 3e74442d     ...@.!.?....-Dt>
    7960:	80000000 3cf84698 60000000 3b78cc51     .....F.<...`Q.x;
    7970:	80000000 39f01b83 40000000 387a2520     .......9...@ %z8
    7980:	80000000 36e38222 00000000 3569f31d     ...."..6......i5

00007990 <TWO52>:
    7990:	00000000 43300000 00000000 c3300000     ......0C......0.

000079a0 <_global_impure_ptr>:
    79a0:	00125700                                .W..

000079a4 <_init>:
    79a4:	e1a0c00d 	mov	r12, sp
    79a8:	e92ddff8 	push	{r3, r4, r5, r6, r7, r8, r9, r10, r11, r12, lr, pc}
    79ac:	e24cb004 	sub	r11, r12, #4
    79b0:	e24bd028 	sub	sp, r11, #40	; 0x28
    79b4:	e89d6ff0 	ldm	sp, {r4, r5, r6, r7, r8, r9, r10, r11, sp, lr}
    79b8:	e12fff1e 	bx	lr

000079bc <__init_array_start>:
    79bc:	00006fc4 	.word	0x00006fc4

000079c0 <__frame_dummy_init_array_entry>:
    79c0:	00000208                                ....

000079c4 <__libc_fini>:
    79c4:	e1a0c00d 	mov	r12, sp
    79c8:	e92ddff8 	push	{r3, r4, r5, r6, r7, r8, r9, r10, r11, r12, lr, pc}
    79cc:	e24cb004 	sub	r11, r12, #4
    79d0:	e24bd028 	sub	sp, r11, #40	; 0x28
    79d4:	e89d6ff0 	ldm	sp, {r4, r5, r6, r7, r8, r9, r10, r11, sp, lr}
    79d8:	e12fff1e 	bx	lr

000079dc <__fini_array_start>:
    79dc:	000001c4 	.word	0x000001c4

000079e0 <__cs3_regions>:
    79e0:	00000000 	.word	0x00000000
    79e4:	00000040 	.word	0x00000040
    79e8:	00000040 	.word	0x00000040
    79ec:	00125f00 	.word	0x00125f00
    79f0:	0002ddc0 	.word	0x0002ddc0

000079f4 <__cs3_regions_end>:
    79f4:	00000000 	.word	0x00000000
